
447inputs/dependLow.elf:     file format elf32-littleriscv


Disassembly of section .text:

00400000 <main>:
  400000:	2b8b4037          	lui	x0,0x2b8b4
  400004:	56800013          	addi	x0,x0,1384
  400008:	f27b20b7          	lui	x1,0xf27b2
  40000c:	3c708093          	addi	x1,x1,967 # f27b23c7 <main+0xf23b23c7>
  400010:	243ca137          	lui	x2,0x243ca
  400014:	86a10113          	addi	x2,x2,-1942 # 243c986a <main+0x23fc986a>
  400018:	263351b7          	lui	x3,0x26335
  40001c:	87418193          	addi	x3,x3,-1932 # 26334874 <main+0x25f34874>
  400020:	34b0e237          	lui	x4,0x34b0e
  400024:	c5220213          	addi	x4,x4,-942 # 34b0dc52 <main+0x3470dc52>
  400028:	d94962b7          	lui	x5,0xd9496
  40002c:	d0028293          	addi	x5,x5,-768 # d9495d00 <main+0xd9095d00>
  400030:	eae89337          	lui	x6,0xeae89
  400034:	44b30313          	addi	x6,x6,1099 # eae8944b <main+0xeaa8944b>
  400038:	225563b7          	lui	x7,0x22556
  40003c:	8ed38393          	addi	x7,x7,-1811 # 225558ed <main+0x221558ed>
  400040:	e38e2437          	lui	x8,0xe38e2
  400044:	f2a40413          	addi	x8,x8,-214 # e38e1f2a <main+0xe34e1f2a>
  400048:	06e884b7          	lui	x9,0x6e88
  40004c:	cce48493          	addi	x9,x9,-818 # 6e87cce <main+0x6a87cce>
  400050:	fd1b6537          	lui	x10,0xfd1b6
  400054:	8bb50513          	addi	x10,x10,-1861 # fd1b58bb <main+0xfcdb58bb>
  400058:	107ed5b7          	lui	x11,0x107ed
  40005c:	7ac58593          	addi	x11,x11,1964 # 107ed7ac <main+0x103ed7ac>
  400060:	eeb14637          	lui	x12,0xeeb14
  400064:	1f360613          	addi	x12,x12,499 # eeb141f3 <main+0xee7141f3>
  400068:	01b726b7          	lui	x13,0x1b72
  40006c:	efc68693          	addi	x13,x13,-260 # 1b71efc <main+0x1771efc>
  400070:	39e2b737          	lui	x14,0x39e2b
  400074:	9e470713          	addi	x14,x14,-1564 # 39e2a9e4 <main+0x39a2a9e4>
  400078:	3545e7b7          	lui	x15,0x3545e
  40007c:	14778793          	addi	x15,x15,327 # 3545e147 <main+0x3505e147>
  400080:	115f0837          	lui	x16,0x115f0
  400084:	07d80813          	addi	x16,x16,125 # 115f007d <main+0x111f007d>
  400088:	1bd068b7          	lui	x17,0x1bd06
  40008c:	2c388893          	addi	x17,x17,707 # 1bd062c3 <main+0x1b9062c3>
  400090:	d2201937          	lui	x18,0xd2201
  400094:	85590913          	addi	x18,x18,-1963 # d2200855 <main+0xd1e00855>
  400098:	0db129b7          	lui	x19,0xdb12
  40009c:	7f998993          	addi	x19,x19,2041 # db127f9 <main+0xd7127f9>
  4000a0:	c2162a37          	lui	x20,0xc2162
  4000a4:	31ca0a13          	addi	x20,x20,796 # c216231c <main+0xc1d6231c>
  4000a8:	df16fab7          	lui	x21,0xdf16f
  4000ac:	9e9a8a93          	addi	x21,x21,-1559 # df16e9e9 <main+0xded6e9e9>
  4000b0:	d190db37          	lui	x22,0xd190d
  4000b4:	de8b0b13          	addi	x22,x22,-536 # d190cde8 <main+0xd150cde8>
  4000b8:	26ef4bb7          	lui	x23,0x26ef4
  4000bc:	38eb8b93          	addi	x23,x23,910 # 26ef438e <main+0x26af438e>
  4000c0:	d40e1c37          	lui	x24,0xd40e1
  4000c4:	f77c0c13          	addi	x24,x24,-137 # d40e0f77 <main+0xd3ce0f77>
  4000c8:	f3522cb7          	lui	x25,0xf3522
  4000cc:	55bc8c93          	addi	x25,x25,1371 # f352255b <main+0xf312255b>
  4000d0:	d09d0d37          	lui	x26,0xd09d0
  4000d4:	92fd0d13          	addi	x26,x26,-1745 # d09cf92f <main+0xd05cf92f>
  4000d8:	cded7db7          	lui	x27,0xcded7
  4000dc:	264d8d93          	addi	x27,x27,612 # cded7264 <main+0xcdad7264>
  4000e0:	3fdcce37          	lui	x28,0x3fdcc
  4000e4:	234e0e13          	addi	x28,x28,564 # 3fdcc234 <main+0x3f9cc234>
  4000e8:	dbefdeb7          	lui	x29,0xdbefd
  4000ec:	7a0e8e93          	addi	x29,x29,1952 # dbefd7a0 <main+0xdbafd7a0>
  4000f0:	01a7cf37          	lui	x30,0x1a7c
  4000f4:	4caf0f13          	addi	x30,x30,1226 # 1a7c4ca <main+0x167c4ca>
  4000f8:	2b680fb7          	lui	x31,0x2b680
  4000fc:	79bf8f93          	addi	x31,x31,1947 # 2b68079b <main+0x2b28079b>
  400100:	01b682b3          	add	x5,x13,x27
  400104:	018880b3          	add	x1,x17,x24
  400108:	0d4d0193          	addi	x3,x26,212
  40010c:	6b410393          	addi	x7,x2,1716
  400110:	01be0a33          	add	x20,x28,x27
  400114:	a41c0913          	addi	x18,x24,-1471
  400118:	00fb0633          	add	x12,x22,x15
  40011c:	019487b3          	add	x15,x9,x25
  400120:	014989b3          	add	x19,x19,x20
  400124:	0fe90913          	addi	x18,x18,254
  400128:	00b98233          	add	x4,x19,x11
  40012c:	f7ce0d13          	addi	x26,x28,-132
  400130:	48958d13          	addi	x26,x11,1161
  400134:	fb1c8e93          	addi	x29,x25,-79
  400138:	002b07b3          	add	x15,x22,x2
  40013c:	7ca88393          	addi	x7,x17,1994
  400140:	f6480913          	addi	x18,x16,-156
  400144:	f1cc8993          	addi	x19,x25,-228
  400148:	01358b33          	add	x22,x11,x19
  40014c:	005c01b3          	add	x3,x24,x5
  400150:	01da8533          	add	x10,x21,x29
  400154:	61bd8913          	addi	x18,x27,1563
  400158:	01d901b3          	add	x3,x18,x29
  40015c:	91978913          	addi	x18,x15,-1767
  400160:	6e1c0293          	addi	x5,x24,1761
  400164:	82928793          	addi	x15,x5,-2007
  400168:	2caa8293          	addi	x5,x21,714
  40016c:	018c8d33          	add	x26,x25,x24
  400170:	00340733          	add	x14,x8,x3
  400174:	00d68ab3          	add	x21,x13,x13
  400178:	01350233          	add	x4,x10,x19
  40017c:	01d808b3          	add	x17,x16,x29
  400180:	894d0a93          	addi	x21,x26,-1900
  400184:	29ea0093          	addi	x1,x20,670
  400188:	00200c33          	add	x24,x0,x2
  40018c:	d8a48293          	addi	x5,x9,-630
  400190:	00d201b3          	add	x3,x4,x13
  400194:	6acf0c93          	addi	x25,x30,1708
  400198:	e2de0293          	addi	x5,x28,-467
  40019c:	01830f33          	add	x30,x6,x24
  4001a0:	01aa8cb3          	add	x25,x21,x26
  4001a4:	01a28e33          	add	x28,x5,x26
  4001a8:	01298733          	add	x14,x19,x18
  4001ac:	00480db3          	add	x27,x16,x4
  4001b0:	014684b3          	add	x9,x13,x20
  4001b4:	00fc0d33          	add	x26,x24,x15
  4001b8:	41488593          	addi	x11,x17,1044
  4001bc:	01eb80b3          	add	x1,x23,x30
  4001c0:	01478f33          	add	x30,x15,x20
  4001c4:	76908e93          	addi	x29,x1,1897
  4001c8:	66960e93          	addi	x29,x12,1641
  4001cc:	003b0233          	add	x4,x22,x3
  4001d0:	c9490c93          	addi	x25,x18,-876
  4001d4:	00e68433          	add	x8,x13,x14
  4001d8:	be588d13          	addi	x26,x17,-1051
  4001dc:	00ec8533          	add	x10,x25,x14
  4001e0:	2b260313          	addi	x6,x12,690
  4001e4:	003e8533          	add	x10,x29,x3
  4001e8:	01c60633          	add	x12,x12,x28
  4001ec:	00318133          	add	x2,x3,x3
  4001f0:	b2980613          	addi	x12,x16,-1239
  4001f4:	011a0933          	add	x18,x20,x17
  4001f8:	a9570993          	addi	x19,x14,-1387
  4001fc:	016d01b3          	add	x3,x26,x22
  400200:	fc060613          	addi	x12,x12,-64
  400204:	46630293          	addi	x5,x6,1126
  400208:	000d83b3          	add	x7,x27,x0
  40020c:	5ffb8293          	addi	x5,x23,1535
  400210:	00f70a33          	add	x20,x14,x15
  400214:	00f403b3          	add	x7,x8,x15
  400218:	00668e33          	add	x28,x13,x6
  40021c:	01098633          	add	x12,x19,x16
  400220:	0d828b93          	addi	x23,x5,216
  400224:	007c0e33          	add	x28,x24,x7
  400228:	11f98793          	addi	x15,x19,287
  40022c:	24988193          	addi	x3,x17,585
  400230:	001104b3          	add	x9,x2,x1
  400234:	013d01b3          	add	x3,x26,x19
  400238:	00870eb3          	add	x29,x14,x8
  40023c:	01b40833          	add	x16,x8,x27
  400240:	00140733          	add	x14,x8,x1
  400244:	00338c33          	add	x24,x7,x3
  400248:	01998bb3          	add	x23,x19,x25
  40024c:	5d9a8e13          	addi	x28,x21,1497
  400250:	014c83b3          	add	x7,x25,x20
  400254:	005908b3          	add	x17,x18,x5
  400258:	01a288b3          	add	x17,x5,x26
  40025c:	015107b3          	add	x15,x2,x21
  400260:	01bc8c33          	add	x24,x25,x27
  400264:	01bb86b3          	add	x13,x23,x27
  400268:	01058e33          	add	x28,x11,x16
  40026c:	01d58ab3          	add	x21,x11,x29
  400270:	008588b3          	add	x17,x11,x8
  400274:	97e50513          	addi	x10,x10,-1666
  400278:	006b04b3          	add	x9,x22,x6
  40027c:	00b88233          	add	x4,x17,x11
  400280:	00e40733          	add	x14,x8,x14
  400284:	01438933          	add	x18,x7,x20
  400288:	00fa8eb3          	add	x29,x21,x15
  40028c:	d0a18393          	addi	x7,x3,-758
  400290:	30d48593          	addi	x11,x9,781
  400294:	00d40bb3          	add	x23,x8,x13
  400298:	00930633          	add	x12,x6,x9
  40029c:	009e83b3          	add	x7,x29,x9
  4002a0:	00508733          	add	x14,x1,x5
  4002a4:	011a8133          	add	x2,x21,x17
  4002a8:	b1a70d13          	addi	x26,x14,-1254
  4002ac:	00e906b3          	add	x13,x18,x14
  4002b0:	6e370693          	addi	x13,x14,1763
  4002b4:	015b0233          	add	x4,x22,x21
  4002b8:	00978133          	add	x2,x15,x9
  4002bc:	4ed60413          	addi	x8,x12,1261
  4002c0:	9c708c93          	addi	x25,x1,-1593
  4002c4:	019c8db3          	add	x27,x25,x25
  4002c8:	01e10cb3          	add	x25,x2,x30
  4002cc:	a1e88093          	addi	x1,x17,-1506
  4002d0:	4f328693          	addi	x13,x5,1267
  4002d4:	005304b3          	add	x9,x6,x5
  4002d8:	e1f40c93          	addi	x25,x8,-481
  4002dc:	00c18cb3          	add	x25,x3,x12
  4002e0:	fc790b13          	addi	x22,x18,-57
  4002e4:	adb38293          	addi	x5,x7,-1317
  4002e8:	74d38e13          	addi	x28,x7,1869
  4002ec:	01570933          	add	x18,x14,x21
  4002f0:	004c84b3          	add	x9,x25,x4
  4002f4:	00330933          	add	x18,x6,x3
  4002f8:	ff250513          	addi	x10,x10,-14
  4002fc:	007e8933          	add	x18,x29,x7
  400300:	00870133          	add	x2,x14,x8
  400304:	f2ab0b13          	addi	x22,x22,-214
  400308:	613e8613          	addi	x12,x29,1555
  40030c:	003386b3          	add	x13,x7,x3
  400310:	002807b3          	add	x15,x16,x2
  400314:	a2838813          	addi	x16,x7,-1496
  400318:	010a0e33          	add	x28,x20,x16
  40031c:	01bc8533          	add	x10,x25,x27
  400320:	8d198a93          	addi	x21,x19,-1839
  400324:	00d88eb3          	add	x29,x17,x13
  400328:	29cb8e93          	addi	x29,x23,668
  40032c:	008601b3          	add	x3,x12,x8
  400330:	00e70933          	add	x18,x14,x14
  400334:	00130233          	add	x4,x6,x1
  400338:	6db98793          	addi	x15,x19,1755
  40033c:	00bc0b33          	add	x22,x24,x11
  400340:	01c88933          	add	x18,x17,x28
  400344:	01568ab3          	add	x21,x13,x21
  400348:	31da8813          	addi	x16,x21,797
  40034c:	10228a13          	addi	x20,x5,258
  400350:	01dd8833          	add	x16,x27,x29
  400354:	00cb87b3          	add	x15,x23,x12
  400358:	922a0a13          	addi	x20,x20,-1758
  40035c:	e0458e13          	addi	x28,x11,-508
  400360:	01bc04b3          	add	x9,x24,x27
  400364:	615e8193          	addi	x3,x29,1557
  400368:	46d30c93          	addi	x25,x6,1133
  40036c:	03f28893          	addi	x17,x5,63
  400370:	00e58bb3          	add	x23,x11,x14
  400374:	5bae8793          	addi	x15,x29,1466
  400378:	014e8533          	add	x10,x29,x20
  40037c:	c64a8193          	addi	x3,x21,-924
  400380:	00540733          	add	x14,x8,x5
  400384:	01d50c33          	add	x24,x10,x29
  400388:	00f80d33          	add	x26,x16,x15
  40038c:	00518d33          	add	x26,x3,x5
  400390:	01438c33          	add	x24,x7,x20
  400394:	7cc70393          	addi	x7,x14,1996
  400398:	f5ed8e13          	addi	x28,x27,-162
  40039c:	00e106b3          	add	x13,x2,x14
  4003a0:	01b284b3          	add	x9,x5,x27
  4003a4:	57518e13          	addi	x28,x3,1397
  4003a8:	011a0f33          	add	x30,x20,x17
  4003ac:	00e58b33          	add	x22,x11,x14
  4003b0:	005882b3          	add	x5,x17,x5
  4003b4:	8c4d0993          	addi	x19,x26,-1852
  4003b8:	01ef0a33          	add	x20,x30,x30
  4003bc:	01a382b3          	add	x5,x7,x26
  4003c0:	015280b3          	add	x1,x5,x21
  4003c4:	01c78a33          	add	x20,x15,x28
  4003c8:	403e8a13          	addi	x20,x29,1027
  4003cc:	01960533          	add	x10,x12,x25
  4003d0:	01258d33          	add	x26,x11,x18
  4003d4:	24e50593          	addi	x11,x10,590
  4003d8:	3d188313          	addi	x6,x17,977
  4003dc:	00f58833          	add	x16,x11,x15
  4003e0:	00ba02b3          	add	x5,x20,x11
  4003e4:	4cd90693          	addi	x13,x18,1229
  4003e8:	95a90d93          	addi	x27,x18,-1702
  4003ec:	00848ab3          	add	x21,x9,x8
  4003f0:	006c83b3          	add	x7,x25,x6
  4003f4:	97ee0a93          	addi	x21,x28,-1666
  4003f8:	3efb0793          	addi	x15,x22,1007
  4003fc:	00748e33          	add	x28,x9,x7
  400400:	00bb0d33          	add	x26,x22,x11
  400404:	d7368693          	addi	x13,x13,-653
  400408:	007283b3          	add	x7,x5,x7
  40040c:	01a80f33          	add	x30,x16,x26
  400410:	01ba8c33          	add	x24,x21,x27
  400414:	00220d33          	add	x26,x4,x2
  400418:	01518633          	add	x12,x3,x21
  40041c:	d78a8d93          	addi	x27,x21,-648
  400420:	01b88333          	add	x6,x17,x27
  400424:	00b488b3          	add	x17,x9,x11
  400428:	18df0a93          	addi	x21,x30,397
  40042c:	00e78f33          	add	x30,x15,x14
  400430:	012d0d33          	add	x26,x26,x18
  400434:	013088b3          	add	x17,x1,x19
  400438:	b7588193          	addi	x3,x17,-1163
  40043c:	c8998f13          	addi	x30,x19,-887
  400440:	3d130313          	addi	x6,x6,977
  400444:	68cd8c13          	addi	x24,x27,1676
  400448:	01580a33          	add	x20,x16,x21
  40044c:	003c83b3          	add	x7,x25,x3
  400450:	017a8ab3          	add	x21,x21,x23
  400454:	00720133          	add	x2,x4,x7
  400458:	fe6b8893          	addi	x17,x23,-26
  40045c:	01be88b3          	add	x17,x29,x27
  400460:	6f9c0f13          	addi	x30,x24,1785
  400464:	00378333          	add	x6,x15,x3
  400468:	00b68a33          	add	x20,x13,x11
  40046c:	e0dc8713          	addi	x14,x25,-499
  400470:	00d981b3          	add	x3,x19,x13
  400474:	017c04b3          	add	x9,x24,x23
  400478:	01030db3          	add	x27,x6,x16
  40047c:	77970893          	addi	x17,x14,1913
  400480:	01898f33          	add	x30,x19,x24
  400484:	00498cb3          	add	x25,x19,x4
  400488:	01750733          	add	x14,x10,x23
  40048c:	01318eb3          	add	x29,x3,x19
  400490:	012d0f33          	add	x30,x26,x18
  400494:	01e90933          	add	x18,x18,x30
  400498:	b46c0a13          	addi	x20,x24,-1210
  40049c:	00de8ab3          	add	x21,x29,x13
  4004a0:	5f8c0213          	addi	x4,x24,1528
  4004a4:	016e8db3          	add	x27,x29,x22
  4004a8:	01b70bb3          	add	x23,x14,x27
  4004ac:	011605b3          	add	x11,x12,x17
  4004b0:	dc4d8c13          	addi	x24,x27,-572
  4004b4:	01150bb3          	add	x23,x10,x17
  4004b8:	00fc8433          	add	x8,x25,x15
  4004bc:	017e0233          	add	x4,x28,x23
  4004c0:	40300c93          	addi	x25,x0,1027
  4004c4:	b01c8613          	addi	x12,x25,-1279
  4004c8:	01148433          	add	x8,x9,x17
  4004cc:	0a710d13          	addi	x26,x2,167
  4004d0:	01120d33          	add	x26,x4,x17
  4004d4:	01ab08b3          	add	x17,x22,x26
  4004d8:	22da8513          	addi	x10,x21,557
  4004dc:	01b689b3          	add	x19,x13,x27
  4004e0:	005d8233          	add	x4,x27,x5
  4004e4:	93d48613          	addi	x12,x9,-1731
  4004e8:	00a00513          	addi	x10,x0,10
  4004ec:	00000073          	ecall
