
447inputs/depend.elf:     file format elf32-littleriscv


Disassembly of section .text:

00400000 <main>:
  400000:	2b8b4037          	lui	x0,0x2b8b4
  400004:	56800013          	addi	x0,x0,1384
  400008:	f27b20b7          	lui	x1,0xf27b2
  40000c:	3c708093          	addi	x1,x1,967 # f27b23c7 <main+0xf23b23c7>
  400010:	243ca137          	lui	x2,0x243ca
  400014:	86a10113          	addi	x2,x2,-1942 # 243c986a <main+0x23fc986a>
  400018:	263351b7          	lui	x3,0x26335
  40001c:	87418193          	addi	x3,x3,-1932 # 26334874 <main+0x25f34874>
  400020:	34b0e237          	lui	x4,0x34b0e
  400024:	c5220213          	addi	x4,x4,-942 # 34b0dc52 <main+0x3470dc52>
  400028:	d94962b7          	lui	x5,0xd9496
  40002c:	d0028293          	addi	x5,x5,-768 # d9495d00 <main+0xd9095d00>
  400030:	eae89337          	lui	x6,0xeae89
  400034:	44b30313          	addi	x6,x6,1099 # eae8944b <main+0xeaa8944b>
  400038:	225563b7          	lui	x7,0x22556
  40003c:	8ed38393          	addi	x7,x7,-1811 # 225558ed <main+0x221558ed>
  400040:	e38e2437          	lui	x8,0xe38e2
  400044:	f2a40413          	addi	x8,x8,-214 # e38e1f2a <main+0xe34e1f2a>
  400048:	06e884b7          	lui	x9,0x6e88
  40004c:	cce48493          	addi	x9,x9,-818 # 6e87cce <main+0x6a87cce>
  400050:	fd1b6537          	lui	x10,0xfd1b6
  400054:	8bb50513          	addi	x10,x10,-1861 # fd1b58bb <main+0xfcdb58bb>
  400058:	107ed5b7          	lui	x11,0x107ed
  40005c:	7ac58593          	addi	x11,x11,1964 # 107ed7ac <main+0x103ed7ac>
  400060:	eeb14637          	lui	x12,0xeeb14
  400064:	1f360613          	addi	x12,x12,499 # eeb141f3 <main+0xee7141f3>
  400068:	01b726b7          	lui	x13,0x1b72
  40006c:	efc68693          	addi	x13,x13,-260 # 1b71efc <main+0x1771efc>
  400070:	39e2b737          	lui	x14,0x39e2b
  400074:	9e470713          	addi	x14,x14,-1564 # 39e2a9e4 <main+0x39a2a9e4>
  400078:	3545e7b7          	lui	x15,0x3545e
  40007c:	14778793          	addi	x15,x15,327 # 3545e147 <main+0x3505e147>
  400080:	115f0837          	lui	x16,0x115f0
  400084:	07d80813          	addi	x16,x16,125 # 115f007d <main+0x111f007d>
  400088:	1bd068b7          	lui	x17,0x1bd06
  40008c:	2c388893          	addi	x17,x17,707 # 1bd062c3 <main+0x1b9062c3>
  400090:	d2201937          	lui	x18,0xd2201
  400094:	85590913          	addi	x18,x18,-1963 # d2200855 <main+0xd1e00855>
  400098:	0db129b7          	lui	x19,0xdb12
  40009c:	7f998993          	addi	x19,x19,2041 # db127f9 <main+0xd7127f9>
  4000a0:	c2162a37          	lui	x20,0xc2162
  4000a4:	31ca0a13          	addi	x20,x20,796 # c216231c <main+0xc1d6231c>
  4000a8:	df16fab7          	lui	x21,0xdf16f
  4000ac:	9e9a8a93          	addi	x21,x21,-1559 # df16e9e9 <main+0xded6e9e9>
  4000b0:	d190db37          	lui	x22,0xd190d
  4000b4:	de8b0b13          	addi	x22,x22,-536 # d190cde8 <main+0xd150cde8>
  4000b8:	26ef4bb7          	lui	x23,0x26ef4
  4000bc:	38eb8b93          	addi	x23,x23,910 # 26ef438e <main+0x26af438e>
  4000c0:	d40e1c37          	lui	x24,0xd40e1
  4000c4:	f77c0c13          	addi	x24,x24,-137 # d40e0f77 <main+0xd3ce0f77>
  4000c8:	f3522cb7          	lui	x25,0xf3522
  4000cc:	55bc8c93          	addi	x25,x25,1371 # f352255b <main+0xf312255b>
  4000d0:	d09d0d37          	lui	x26,0xd09d0
  4000d4:	92fd0d13          	addi	x26,x26,-1745 # d09cf92f <main+0xd05cf92f>
  4000d8:	cded7db7          	lui	x27,0xcded7
  4000dc:	264d8d93          	addi	x27,x27,612 # cded7264 <main+0xcdad7264>
  4000e0:	3fdcce37          	lui	x28,0x3fdcc
  4000e4:	234e0e13          	addi	x28,x28,564 # 3fdcc234 <main+0x3f9cc234>
  4000e8:	dbefdeb7          	lui	x29,0xdbefd
  4000ec:	7a0e8e93          	addi	x29,x29,1952 # dbefd7a0 <main+0xdbafd7a0>
  4000f0:	01a7cf37          	lui	x30,0x1a7c
  4000f4:	4caf0f13          	addi	x30,x30,1226 # 1a7c4ca <main+0x167c4ca>
  4000f8:	2b680fb7          	lui	x31,0x2b680
  4000fc:	79bf8f93          	addi	x31,x31,1947 # 2b68079b <main+0x2b28079b>
  400100:	002201b3          	add	x3,x4,x2
  400104:	c5e10293          	addi	x5,x2,-930
  400108:	e9b28193          	addi	x3,x5,-357
  40010c:	00120133          	add	x2,x4,x1
  400110:	005101b3          	add	x3,x2,x5
  400114:	005282b3          	add	x5,x5,x5
  400118:	001101b3          	add	x3,x2,x1
  40011c:	efb08113          	addi	x2,x1,-261
  400120:	00128133          	add	x2,x5,x1
  400124:	00410233          	add	x4,x2,x4
  400128:	f7c18113          	addi	x2,x3,-132
  40012c:	48910113          	addi	x2,x2,1161
  400130:	003202b3          	add	x5,x4,x3
  400134:	005182b3          	add	x5,x3,x5
  400138:	a3a28213          	addi	x4,x5,-1478
  40013c:	002282b3          	add	x5,x5,x2
  400140:	005182b3          	add	x5,x3,x5
  400144:	31420293          	addi	x5,x4,788 # 314 <main-0x3ffcec>
  400148:	b7910093          	addi	x1,x2,-1159
  40014c:	21110213          	addi	x4,x2,529
  400150:	00410233          	add	x4,x2,x4
  400154:	00318133          	add	x2,x3,x3
  400158:	00520233          	add	x4,x4,x5
  40015c:	004082b3          	add	x5,x1,x4
  400160:	00310133          	add	x2,x2,x3
  400164:	f1320113          	addi	x2,x4,-237 # ffffff13 <main+0xffbfff13>
  400168:	00420133          	add	x2,x4,x4
  40016c:	23418193          	addi	x3,x3,564
  400170:	002280b3          	add	x1,x5,x2
  400174:	002282b3          	add	x5,x5,x2
  400178:	00110133          	add	x2,x2,x1
  40017c:	00500133          	add	x2,x0,x5
  400180:	00428233          	add	x4,x5,x4
  400184:	20820193          	addi	x3,x4,520 # 208 <main-0x3ffdf8>
  400188:	e9a10293          	addi	x5,x2,-358
  40018c:	001281b3          	add	x3,x5,x1
  400190:	00328133          	add	x2,x5,x3
  400194:	004100b3          	add	x1,x2,x4
  400198:	003202b3          	add	x5,x4,x3
  40019c:	63208113          	addi	x2,x1,1586
  4001a0:	00510233          	add	x4,x2,x5
  4001a4:	00228133          	add	x2,x5,x2
  4001a8:	00110133          	add	x2,x2,x1
  4001ac:	003082b3          	add	x5,x1,x3
  4001b0:	23428113          	addi	x2,x5,564
  4001b4:	00020133          	add	x2,x4,x0
  4001b8:	67820113          	addi	x2,x4,1656 # 678 <main-0x3ff988>
  4001bc:	fd010193          	addi	x3,x2,-48
  4001c0:	94c10293          	addi	x5,x2,-1716
  4001c4:	004181b3          	add	x3,x3,x4
  4001c8:	d9928213          	addi	x4,x5,-615
  4001cc:	004200b3          	add	x1,x4,x4
  4001d0:	001280b3          	add	x1,x5,x1
  4001d4:	00228133          	add	x2,x5,x2
  4001d8:	00420233          	add	x4,x4,x4
  4001dc:	a6518113          	addi	x2,x3,-1435
  4001e0:	00128233          	add	x4,x5,x1
  4001e4:	85108093          	addi	x1,x1,-1967
  4001e8:	002182b3          	add	x5,x3,x2
  4001ec:	00118233          	add	x4,x3,x1
  4001f0:	00220133          	add	x2,x4,x2
  4001f4:	002280b3          	add	x1,x5,x2
  4001f8:	5ff28293          	addi	x5,x5,1535
  4001fc:	00208133          	add	x2,x1,x2
  400200:	001182b3          	add	x5,x3,x1
  400204:	bc128213          	addi	x4,x5,-1087
  400208:	005280b3          	add	x1,x5,x5
  40020c:	0d818193          	addi	x3,x3,216
  400210:	00318033          	add	x0,x3,x3
  400214:	003101b3          	add	x3,x2,x3
  400218:	aae20213          	addi	x4,x4,-1362 # fffffaae <main+0xffbffaae>
  40021c:	00410133          	add	x2,x2,x4
  400220:	00220033          	add	x0,x4,x2
  400224:	00820293          	addi	x5,x4,8 # 8 <main-0x3ffff8>
  400228:	002080b3          	add	x1,x1,x2
  40022c:	8d710113          	addi	x2,x2,-1833
  400230:	49910193          	addi	x3,x2,1177
  400234:	004201b3          	add	x3,x4,x4
  400238:	00328133          	add	x2,x5,x3
  40023c:	6c928293          	addi	x5,x5,1737
  400240:	005080b3          	add	x1,x1,x5
  400244:	00520133          	add	x2,x4,x5
  400248:	003080b3          	add	x1,x1,x3
  40024c:	005080b3          	add	x1,x1,x5
  400250:	003080b3          	add	x1,x1,x3
  400254:	3eb08113          	addi	x2,x1,1003
  400258:	00128233          	add	x4,x5,x1
  40025c:	44e10293          	addi	x5,x2,1102
  400260:	004200b3          	add	x1,x4,x4
  400264:	00220133          	add	x2,x4,x2
  400268:	003202b3          	add	x5,x4,x3
  40026c:	004180b3          	add	x1,x3,x4
  400270:	d0a10213          	addi	x4,x2,-758
  400274:	30d10193          	addi	x3,x2,781
  400278:	003081b3          	add	x3,x1,x3
  40027c:	00520133          	add	x2,x4,x5
  400280:	b2d08213          	addi	x4,x1,-1235
  400284:	00518133          	add	x2,x3,x5
  400288:	00218133          	add	x2,x3,x2
  40028c:	00128133          	add	x2,x5,x1
  400290:	a8b10093          	addi	x1,x2,-1397
  400294:	005000b3          	add	x1,x0,x5
  400298:	003282b3          	add	x5,x5,x3
  40029c:	fbc28093          	addi	x1,x5,-68
  4002a0:	be518113          	addi	x2,x3,-1051
  4002a4:	00308133          	add	x2,x1,x3
  4002a8:	005101b3          	add	x3,x2,x5
  4002ac:	a1e08213          	addi	x4,x1,-1506
  4002b0:	4f300293          	addi	x5,x0,1267
  4002b4:	003182b3          	add	x5,x3,x3
  4002b8:	00220133          	add	x2,x4,x2
  4002bc:	00120133          	add	x2,x4,x1
  4002c0:	001202b3          	add	x5,x4,x1
  4002c4:	00318133          	add	x2,x3,x3
  4002c8:	005201b3          	add	x3,x4,x5
  4002cc:	005202b3          	add	x5,x4,x5
  4002d0:	ff218213          	addi	x4,x3,-14
  4002d4:	005182b3          	add	x5,x3,x5
  4002d8:	00308233          	add	x4,x1,x3
  4002dc:	f2a28193          	addi	x3,x5,-214
  4002e0:	61328093          	addi	x1,x5,1555
  4002e4:	00308133          	add	x2,x1,x3
  4002e8:	00410233          	add	x4,x2,x4
  4002ec:	00228133          	add	x2,x5,x2
  4002f0:	00418233          	add	x4,x3,x4
  4002f4:	001201b3          	add	x3,x4,x1
  4002f8:	003280b3          	add	x1,x5,x3
  4002fc:	00310133          	add	x2,x2,x3
  400300:	005200b3          	add	x1,x4,x5
  400304:	004202b3          	add	x5,x4,x4
  400308:	d3020293          	addi	x5,x4,-720 # fffffd30 <main+0xffbffd30>
  40030c:	004200b3          	add	x1,x4,x4
  400310:	00418133          	add	x2,x3,x4
  400314:	001282b3          	add	x5,x5,x1
  400318:	00328133          	add	x2,x5,x3
  40031c:	003280b3          	add	x1,x5,x3
  400320:	00508233          	add	x4,x1,x5
  400324:	00420133          	add	x2,x4,x4
  400328:	003202b3          	add	x5,x4,x3
  40032c:	005100b3          	add	x1,x2,x5
  400330:	005100b3          	add	x1,x2,x5
  400334:	67118293          	addi	x5,x3,1649
  400338:	f6a20093          	addi	x1,x4,-150 # ffffff6a <main+0xffbfff6a>
  40033c:	001282b3          	add	x5,x5,x1
  400340:	3f508093          	addi	x1,x1,1013
  400344:	45b18213          	addi	x4,x3,1115
  400348:	004102b3          	add	x5,x2,x4
  40034c:	002100b3          	add	x1,x2,x2
  400350:	82a18113          	addi	x2,x3,-2006
  400354:	7cc10113          	addi	x2,x2,1996
  400358:	f5e10213          	addi	x4,x2,-162
  40035c:	001182b3          	add	x5,x3,x1
  400360:	004080b3          	add	x1,x1,x4
  400364:	8d128193          	addi	x3,x5,-1839
  400368:	a8428293          	addi	x5,x5,-1404
  40036c:	004081b3          	add	x3,x1,x4
  400370:	39918213          	addi	x4,x3,921
  400374:	00210233          	add	x4,x2,x2
  400378:	00308133          	add	x2,x1,x3
  40037c:	cc708113          	addi	x2,x1,-825
  400380:	003182b3          	add	x5,x3,x3
  400384:	00418133          	add	x2,x3,x4
  400388:	005281b3          	add	x3,x5,x5
  40038c:	003281b3          	add	x3,x5,x3
  400390:	002102b3          	add	x5,x2,x2
  400394:	e5d08013          	addi	x0,x1,-419
  400398:	dd820113          	addi	x2,x4,-552 # fffffdd8 <main+0xffbffdd8>
  40039c:	00220233          	add	x4,x4,x2
  4003a0:	4cd08113          	addi	x2,x1,1229
  4003a4:	95a10093          	addi	x1,x2,-1702
  4003a8:	003181b3          	add	x3,x3,x3
  4003ac:	004081b3          	add	x3,x1,x4
  4003b0:	97e20293          	addi	x5,x4,-1666 # fffff97e <main+0xffbff97e>
  4003b4:	91118093          	addi	x1,x3,-1775
  4003b8:	002082b3          	add	x5,x1,x2
  4003bc:	55518193          	addi	x3,x3,1365
  4003c0:	005281b3          	add	x3,x5,x5
  4003c4:	001101b3          	add	x3,x2,x1
  4003c8:	004280b3          	add	x1,x5,x4
  4003cc:	005280b3          	add	x1,x5,x5
  4003d0:	00428133          	add	x2,x5,x4
  4003d4:	00228233          	add	x4,x5,x2
  4003d8:	00410233          	add	x4,x2,x4
  4003dc:	18d18113          	addi	x2,x3,397
  4003e0:	001181b3          	add	x3,x3,x1
  4003e4:	00228133          	add	x2,x5,x2
  4003e8:	00520133          	add	x2,x4,x5
  4003ec:	c8910193          	addi	x3,x2,-887
  4003f0:	3d110113          	addi	x2,x2,977
  4003f4:	42f28293          	addi	x5,x5,1071
  4003f8:	3ad28113          	addi	x2,x5,941
  4003fc:	003180b3          	add	x1,x3,x3
  400400:	002200b3          	add	x1,x4,x2
  400404:	00120133          	add	x2,x4,x1
  400408:	fe618293          	addi	x5,x3,-26
  40040c:	004202b3          	add	x5,x4,x4
  400410:	002281b3          	add	x3,x5,x2
  400414:	06410113          	addi	x2,x2,100
  400418:	005282b3          	add	x5,x5,x5
  40041c:	00520133          	add	x2,x4,x5
  400420:	00408033          	add	x0,x1,x4
  400424:	00108233          	add	x4,x1,x1
  400428:	77928213          	addi	x4,x5,1913
  40042c:	00510133          	add	x2,x2,x5
  400430:	08728213          	addi	x4,x5,135
  400434:	1db20113          	addi	x2,x4,475 # 1db <main-0x3ffe25>
  400438:	44d08113          	addi	x2,x1,1101
  40043c:	003182b3          	add	x5,x3,x3
  400440:	003280b3          	add	x1,x5,x3
  400444:	005181b3          	add	x3,x3,x5
  400448:	002201b3          	add	x3,x4,x2
  40044c:	00108233          	add	x4,x1,x1
  400450:	002200b3          	add	x1,x4,x2
  400454:	001201b3          	add	x3,x4,x1
  400458:	00518233          	add	x4,x3,x5
  40045c:	ab228093          	addi	x1,x5,-1358
  400460:	004182b3          	add	x5,x3,x4
  400464:	004082b3          	add	x5,x1,x4
  400468:	7a810193          	addi	x3,x2,1960
  40046c:	74c08293          	addi	x5,x1,1868
  400470:	002281b3          	add	x3,x5,x2
  400474:	a8808093          	addi	x1,x1,-1400
  400478:	000201b3          	add	x3,x4,x0
  40047c:	00320133          	add	x2,x4,x3
  400480:	be410293          	addi	x5,x2,-1052
  400484:	31b08213          	addi	x4,x1,795
  400488:	00208233          	add	x4,x1,x2
  40048c:	005100b3          	add	x1,x2,x5
  400490:	d2418193          	addi	x3,x3,-732
  400494:	005201b3          	add	x3,x4,x5
  400498:	00118233          	add	x4,x3,x1
  40049c:	00110233          	add	x4,x2,x1
  4004a0:	005200b3          	add	x1,x4,x5
  4004a4:	00320233          	add	x4,x4,x3
  4004a8:	00528233          	add	x4,x5,x5
  4004ac:	003280b3          	add	x1,x5,x3
  4004b0:	001280b3          	add	x1,x5,x1
  4004b4:	003100b3          	add	x1,x2,x3
  4004b8:	001180b3          	add	x1,x3,x1
  4004bc:	002182b3          	add	x5,x3,x2
  4004c0:	9db28093          	addi	x1,x5,-1573
  4004c4:	002281b3          	add	x3,x5,x2
  4004c8:	5cc08193          	addi	x3,x1,1484
  4004cc:	ffc08293          	addi	x5,x1,-4
  4004d0:	000182b3          	add	x5,x3,x0
  4004d4:	00110233          	add	x4,x2,x1
  4004d8:	00418133          	add	x2,x3,x4
  4004dc:	4a210013          	addi	x0,x2,1186
  4004e0:	cbb08093          	addi	x1,x1,-837
  4004e4:	004102b3          	add	x5,x2,x4
  4004e8:	00a00513          	addi	x10,x0,10
  4004ec:	00000073          	ecall
