
custom_benchmarks/gaussian.elf:     file format elf32-littleriscv


Disassembly of section .text:

00400000 <_start>:
  400000:	384000ef          	jal	x1,400384 <main>
  400004:	00050113          	addi	x2,x10,0
  400008:	00058193          	addi	x3,x11,0
  40000c:	00a00513          	addi	x10,x0,10
  400010:	00000073          	ecall

00400014 <tid>:
  400014:	0000050f          	.insn	4, 0x050f
  400018:	00008067          	jalr	x0,0(x1)

0040001c <bid>:
  40001c:	0000150f          	.insn	4, 0x150f
  400020:	00008067          	jalr	x0,0(x1)

00400024 <bdim>:
  400024:	0000250f          	.insn	4, 0x250f
  400028:	00008067          	jalr	x0,0(x1)

0040002c <gdim>:
  40002c:	0000350f          	.insn	4, 0x350f
  400030:	00008067          	jalr	x0,0(x1)

00400034 <gaussian_blur>:
  400034:	fa010113          	addi	x2,x2,-96
  400038:	04112e23          	sw	x1,92(x2)
  40003c:	04812c23          	sw	x8,88(x2)
  400040:	04912a23          	sw	x9,84(x2)
  400044:	00058413          	addi	x8,x11,0
  400048:	05212823          	sw	x18,80(x2)
  40004c:	05312623          	sw	x19,76(x2)
  400050:	03712e23          	sw	x23,60(x2)
  400054:	00050993          	addi	x19,x10,0
  400058:	03812c23          	sw	x24,56(x2)
  40005c:	03912a23          	sw	x25,52(x2)
  400060:	03a12823          	sw	x26,48(x2)
  400064:	03b12623          	sw	x27,44(x2)
  400068:	05412423          	sw	x20,72(x2)
  40006c:	05512223          	sw	x21,68(x2)
  400070:	05612023          	sw	x22,64(x2)
  400074:	fa9ff0ef          	jal	x1,40001c <bid>
  400078:	00050493          	addi	x9,x10,0
  40007c:	fa9ff0ef          	jal	x1,400024 <bdim>
  400080:	00050593          	addi	x11,x10,0
  400084:	00048513          	addi	x10,x9,0
  400088:	3fc000ef          	jal	x1,400484 <__mulsi3>
  40008c:	00050493          	addi	x9,x10,0
  400090:	f85ff0ef          	jal	x1,400014 <tid>
  400094:	00a484b3          	add	x9,x9,x10
  400098:	f8dff0ef          	jal	x1,400024 <bdim>
  40009c:	00050913          	addi	x18,x10,0
  4000a0:	f8dff0ef          	jal	x1,40002c <gdim>
  4000a4:	00050593          	addi	x11,x10,0
  4000a8:	00090513          	addi	x10,x18,0
  4000ac:	3d8000ef          	jal	x1,400484 <__mulsi3>
  4000b0:	100007b7          	lui	x15,0x10000
  4000b4:	00078793          	addi	x15,x15,0 # 10000000 <conv_filter>
  4000b8:	0147a683          	lw	x13,20(x15)
  4000bc:	0007ad83          	lw	x27,0(x15)
  4000c0:	0047ad03          	lw	x26,4(x15)
  4000c4:	00d12223          	sw	x13,4(x2)
  4000c8:	0187a683          	lw	x13,24(x15)
  4000cc:	0087ac83          	lw	x25,8(x15)
  4000d0:	00c7ac03          	lw	x24,12(x15)
  4000d4:	0107ab83          	lw	x23,16(x15)
  4000d8:	00d12423          	sw	x13,8(x2)
  4000dc:	01c7a683          	lw	x13,28(x15)
  4000e0:	0207a783          	lw	x15,32(x15)
  4000e4:	00040737          	lui	x14,0x40
  4000e8:	5fa98913          	addi	x18,x19,1530
  4000ec:	00f12823          	sw	x15,16(x2)
  4000f0:	80470793          	addi	x15,x14,-2044 # 3f804 <_start-0x3c07fc>
  4000f4:	00040293          	addi	x5,x8,0
  4000f8:	00a12023          	sw	x10,0(x2)
  4000fc:	00d12623          	sw	x13,12(x2)
  400100:	00f12e23          	sw	x15,28(x2)
  400104:	00000393          	addi	x7,x0,0
  400108:	00090993          	addi	x19,x18,0
  40010c:	a0698413          	addi	x8,x19,-1530
  400110:	00698b13          	addi	x22,x19,6
  400114:	60698a93          	addi	x21,x19,1542
  400118:	000a8913          	addi	x18,x21,0
  40011c:	000b0a13          	addi	x20,x22,0
  400120:	00040a93          	addi	x21,x8,0
  400124:	00712a23          	sw	x7,20(x2)
  400128:	00512c23          	sw	x5,24(x2)
  40012c:	00028413          	addi	x8,x5,0
  400130:	00038b13          	addi	x22,x7,0
  400134:	01c0006f          	jal	x0,400150 <gaussian_blur+0x11c>
  400138:	003a8a93          	addi	x21,x21,3
  40013c:	001b0b13          	addi	x22,x22,1
  400140:	003a0a13          	addi	x20,x20,3
  400144:	00390913          	addi	x18,x18,3
  400148:	00340413          	addi	x8,x8,3
  40014c:	19598663          	beq	x19,x21,4002d8 <gaussian_blur+0x2a4>
  400150:	00012583          	lw	x11,0(x2)
  400154:	000b0513          	addi	x10,x22,0
  400158:	3a0000ef          	jal	x1,4004f8 <__umodsi3>
  40015c:	fc951ee3          	bne	x10,x9,400138 <gaussian_blur+0x104>
  400160:	000ac583          	lbu	x11,0(x21)
  400164:	003ac883          	lbu	x17,3(x21)
  400168:	001acf03          	lbu	x30,1(x21)
  40016c:	002ace83          	lbu	x29,2(x21)
  400170:	004acf83          	lbu	x31,4(x21)
  400174:	005ac503          	lbu	x10,5(x21)
  400178:	006ace03          	lbu	x28,6(x21)
  40017c:	007ac303          	lbu	x6,7(x21)
  400180:	01a898b3          	sll	x17,x17,x26
  400184:	01af9fb3          	sll	x31,x31,x26
  400188:	01a51533          	sll	x10,x10,x26
  40018c:	01b595b3          	sll	x11,x11,x27
  400190:	01bf1f33          	sll	x30,x30,x27
  400194:	01be9eb3          	sll	x29,x29,x27
  400198:	011585b3          	add	x11,x11,x17
  40019c:	01ff0f33          	add	x30,x30,x31
  4001a0:	008ac883          	lbu	x17,8(x21)
  4001a4:	00ae8eb3          	add	x29,x29,x10
  4001a8:	019e1e33          	sll	x28,x28,x25
  4001ac:	000a4503          	lbu	x10,0(x20)
  4001b0:	01931333          	sll	x6,x6,x25
  4001b4:	001a4f83          	lbu	x31,1(x20)
  4001b8:	00be0e33          	add	x28,x28,x11
  4001bc:	01e30333          	add	x6,x6,x30
  4001c0:	002a4583          	lbu	x11,2(x20)
  4001c4:	003a4f03          	lbu	x30,3(x20)
  4001c8:	019898b3          	sll	x17,x17,x25
  4001cc:	01851533          	sll	x10,x10,x24
  4001d0:	01d888b3          	add	x17,x17,x29
  4001d4:	01c50533          	add	x10,x10,x28
  4001d8:	018f9fb3          	sll	x31,x31,x24
  4001dc:	005a4e03          	lbu	x28,5(x20)
  4001e0:	018595b3          	sll	x11,x11,x24
  4001e4:	017f1f33          	sll	x30,x30,x23
  4001e8:	00412783          	lw	x15,4(x2)
  4001ec:	004a4e83          	lbu	x29,4(x20)
  4001f0:	006f8fb3          	add	x31,x31,x6
  4001f4:	011585b3          	add	x11,x11,x17
  4001f8:	006a4303          	lbu	x6,6(x20)
  4001fc:	007a4883          	lbu	x17,7(x20)
  400200:	00af0f33          	add	x30,x30,x10
  400204:	008a4503          	lbu	x10,8(x20)
  400208:	017e1e33          	sll	x28,x28,x23
  40020c:	00be0e33          	add	x28,x28,x11
  400210:	00f31333          	sll	x6,x6,x15
  400214:	00094583          	lbu	x11,0(x18)
  400218:	00f898b3          	sll	x17,x17,x15
  40021c:	00f51533          	sll	x10,x10,x15
  400220:	017e9eb3          	sll	x29,x29,x23
  400224:	00812783          	lw	x15,8(x2)
  400228:	01fe8eb3          	add	x29,x29,x31
  40022c:	01e30333          	add	x6,x6,x30
  400230:	00194f83          	lbu	x31,1(x18)
  400234:	00294f03          	lbu	x30,2(x18)
  400238:	00f595b3          	sll	x11,x11,x15
  40023c:	01d888b3          	add	x17,x17,x29
  400240:	01c50533          	add	x10,x10,x28
  400244:	00394e83          	lbu	x29,3(x18)
  400248:	00494e03          	lbu	x28,4(x18)
  40024c:	006585b3          	add	x11,x11,x6
  400250:	00ff9fb3          	sll	x31,x31,x15
  400254:	00594303          	lbu	x6,5(x18)
  400258:	00ff1f33          	sll	x30,x30,x15
  40025c:	00c12783          	lw	x15,12(x2)
  400260:	011f8fb3          	add	x31,x31,x17
  400264:	00694883          	lbu	x17,6(x18)
  400268:	00fe9eb3          	sll	x29,x29,x15
  40026c:	00fe1e33          	sll	x28,x28,x15
  400270:	00f31333          	sll	x6,x6,x15
  400274:	01012783          	lw	x15,16(x2)
  400278:	00af0f33          	add	x30,x30,x10
  40027c:	00be8eb3          	add	x29,x29,x11
  400280:	00794503          	lbu	x10,7(x18)
  400284:	00894583          	lbu	x11,8(x18)
  400288:	00f898b3          	sll	x17,x17,x15
  40028c:	01fe0e33          	add	x28,x28,x31
  400290:	01e30333          	add	x6,x6,x30
  400294:	00f51533          	sll	x10,x10,x15
  400298:	00f595b3          	sll	x11,x11,x15
  40029c:	01d888b3          	add	x17,x17,x29
  4002a0:	01c50533          	add	x10,x10,x28
  4002a4:	006585b3          	add	x11,x11,x6
  4002a8:	4048d893          	srai	x17,x17,0x4
  4002ac:	01140023          	sb	x17,0(x8)
  4002b0:	40455513          	srai	x10,x10,0x4
  4002b4:	4045d593          	srai	x11,x11,0x4
  4002b8:	00a400a3          	sb	x10,1(x8)
  4002bc:	003a8a93          	addi	x21,x21,3
  4002c0:	00b40123          	sb	x11,2(x8)
  4002c4:	001b0b13          	addi	x22,x22,1
  4002c8:	003a0a13          	addi	x20,x20,3
  4002cc:	00390913          	addi	x18,x18,3
  4002d0:	00340413          	addi	x8,x8,3
  4002d4:	e7599ee3          	bne	x19,x21,400150 <gaussian_blur+0x11c>
  4002d8:	01412383          	lw	x7,20(x2)
  4002dc:	01812283          	lw	x5,24(x2)
  4002e0:	01c12783          	lw	x15,28(x2)
  4002e4:	1fe38393          	addi	x7,x7,510
  4002e8:	60098993          	addi	x19,x19,1536
  4002ec:	5fa28293          	addi	x5,x5,1530
  4002f0:	e0f39ee3          	bne	x7,x15,40010c <gaussian_blur+0xd8>
  4002f4:	05c12083          	lw	x1,92(x2)
  4002f8:	05812403          	lw	x8,88(x2)
  4002fc:	05412483          	lw	x9,84(x2)
  400300:	05012903          	lw	x18,80(x2)
  400304:	04c12983          	lw	x19,76(x2)
  400308:	04812a03          	lw	x20,72(x2)
  40030c:	04412a83          	lw	x21,68(x2)
  400310:	04012b03          	lw	x22,64(x2)
  400314:	03c12b83          	lw	x23,60(x2)
  400318:	03812c03          	lw	x24,56(x2)
  40031c:	03412c83          	lw	x25,52(x2)
  400320:	03012d03          	lw	x26,48(x2)
  400324:	02c12d83          	lw	x27,44(x2)
  400328:	06010113          	addi	x2,x2,96
  40032c:	00008067          	jalr	x0,0(x1)

00400330 <checksum>:
  400330:	000bf7b7          	lui	x15,0xbf
  400334:	e0678793          	addi	x15,x15,-506 # bee06 <_start-0x3411fa>
  400338:	5fa50893          	addi	x17,x10,1530
  40033c:	00f50333          	add	x6,x10,x15
  400340:	00000693          	addi	x13,x0,0
  400344:	00000513          	addi	x10,x0,0
  400348:	00000713          	addi	x14,x0,0
  40034c:	a0688793          	addi	x15,x17,-1530
  400350:	0007c803          	lbu	x16,0(x15)
  400354:	0017c583          	lbu	x11,1(x15)
  400358:	0027c603          	lbu	x12,2(x15)
  40035c:	00378793          	addi	x15,x15,3
  400360:	01070733          	add	x14,x14,x16
  400364:	00b686b3          	add	x13,x13,x11
  400368:	00c50533          	add	x10,x10,x12
  40036c:	fef892e3          	bne	x17,x15,400350 <checksum+0x20>
  400370:	5fa88893          	addi	x17,x17,1530
  400374:	fd131ce3          	bne	x6,x17,40034c <checksum+0x1c>
  400378:	00d74733          	xor	x14,x14,x13
  40037c:	00a74533          	xor	x10,x14,x10
  400380:	00008067          	jalr	x0,0(x1)

00400384 <main>:
  400384:	fe010113          	addi	x2,x2,-32
  400388:	00112e23          	sw	x1,28(x2)
  40038c:	00812c23          	sw	x8,24(x2)
  400390:	00912a23          	sw	x9,20(x2)
  400394:	01212823          	sw	x18,16(x2)
  400398:	01312623          	sw	x19,12(x2)
  40039c:	01412423          	sw	x20,8(x2)
  4003a0:	01512223          	sw	x21,4(x2)
  4003a4:	c79ff0ef          	jal	x1,40001c <bid>
  4003a8:	00050413          	addi	x8,x10,0
  4003ac:	c79ff0ef          	jal	x1,400024 <bdim>
  4003b0:	00050593          	addi	x11,x10,0
  4003b4:	00040513          	addi	x10,x8,0
  4003b8:	0cc000ef          	jal	x1,400484 <__mulsi3>
  4003bc:	00050493          	addi	x9,x10,0
  4003c0:	c55ff0ef          	jal	x1,400014 <tid>
  4003c4:	00a484b3          	add	x9,x9,x10
  4003c8:	c5dff0ef          	jal	x1,400024 <bdim>
  4003cc:	00050993          	addi	x19,x10,0
  4003d0:	c5dff0ef          	jal	x1,40002c <gdim>
  4003d4:	00050a13          	addi	x20,x10,0
  4003d8:	100c0ab7          	lui	x21,0x100c0
  4003dc:	10000537          	lui	x10,0x10000
  4003e0:	024a8593          	addi	x11,x21,36 # 100c0024 <blur_image>
  4003e4:	02450513          	addi	x10,x10,36 # 10000024 <image>
  4003e8:	1017f937          	lui	x18,0x1017f
  4003ec:	c49ff0ef          	jal	x1,400034 <gaussian_blur>
  4003f0:	00249413          	slli	x8,x9,0x2
  4003f4:	83090913          	addi	x18,x18,-2000 # 1017e830 <thread_done>
  4003f8:	008907b3          	add	x15,x18,x8
  4003fc:	00100713          	addi	x14,x0,1
  400400:	00e7a023          	sw	x14,0(x15)
  400404:	02048663          	beq	x9,x0,400430 <main+0xac>
  400408:	01c12083          	lw	x1,28(x2)
  40040c:	01812403          	lw	x8,24(x2)
  400410:	01412483          	lw	x9,20(x2)
  400414:	01012903          	lw	x18,16(x2)
  400418:	00c12983          	lw	x19,12(x2)
  40041c:	00812a03          	lw	x20,8(x2)
  400420:	00412a83          	lw	x21,4(x2)
  400424:	00000513          	addi	x10,x0,0
  400428:	02010113          	addi	x2,x2,32
  40042c:	00008067          	jalr	x0,0(x1)
  400430:	000a0593          	addi	x11,x20,0
  400434:	00098513          	addi	x10,x19,0
  400438:	04c000ef          	jal	x1,400484 <__mulsi3>
  40043c:	02050063          	beq	x10,x0,40045c <main+0xd8>
  400440:	00890733          	add	x14,x18,x8
  400444:	00072783          	lw	x15,0(x14)
  400448:	fe078ee3          	beq	x15,x0,400444 <main+0xc0>
  40044c:	00148493          	addi	x9,x9,1
  400450:	00950663          	beq	x10,x9,40045c <main+0xd8>
  400454:	00249413          	slli	x8,x9,0x2
  400458:	fe9ff06f          	jal	x0,400440 <main+0xbc>
  40045c:	01812403          	lw	x8,24(x2)
  400460:	01c12083          	lw	x1,28(x2)
  400464:	01412483          	lw	x9,20(x2)
  400468:	01012903          	lw	x18,16(x2)
  40046c:	00c12983          	lw	x19,12(x2)
  400470:	00812a03          	lw	x20,8(x2)
  400474:	024a8513          	addi	x10,x21,36
  400478:	00412a83          	lw	x21,4(x2)
  40047c:	02010113          	addi	x2,x2,32
  400480:	eb1ff06f          	jal	x0,400330 <checksum>

00400484 <__mulsi3>:
  400484:	00050613          	addi	x12,x10,0
  400488:	00000513          	addi	x10,x0,0
  40048c:	0015f693          	andi	x13,x11,1
  400490:	00068463          	beq	x13,x0,400498 <__mulsi3+0x14>
  400494:	00c50533          	add	x10,x10,x12
  400498:	0015d593          	srli	x11,x11,0x1
  40049c:	00161613          	slli	x12,x12,0x1
  4004a0:	fe0596e3          	bne	x11,x0,40048c <__mulsi3+0x8>
  4004a4:	00008067          	jalr	x0,0(x1)

004004a8 <__divsi3>:
  4004a8:	06054063          	blt	x10,x0,400508 <__umodsi3+0x10>
  4004ac:	0605c663          	blt	x11,x0,400518 <__umodsi3+0x20>

004004b0 <__hidden___udivsi3>:
  4004b0:	00058613          	addi	x12,x11,0
  4004b4:	00050593          	addi	x11,x10,0
  4004b8:	fff00513          	addi	x10,x0,-1
  4004bc:	02060c63          	beq	x12,x0,4004f4 <__hidden___udivsi3+0x44>
  4004c0:	00100693          	addi	x13,x0,1
  4004c4:	00b67a63          	bgeu	x12,x11,4004d8 <__hidden___udivsi3+0x28>
  4004c8:	00c05863          	bge	x0,x12,4004d8 <__hidden___udivsi3+0x28>
  4004cc:	00161613          	slli	x12,x12,0x1
  4004d0:	00169693          	slli	x13,x13,0x1
  4004d4:	feb66ae3          	bltu	x12,x11,4004c8 <__hidden___udivsi3+0x18>
  4004d8:	00000513          	addi	x10,x0,0
  4004dc:	00c5e663          	bltu	x11,x12,4004e8 <__hidden___udivsi3+0x38>
  4004e0:	40c585b3          	sub	x11,x11,x12
  4004e4:	00d56533          	or	x10,x10,x13
  4004e8:	0016d693          	srli	x13,x13,0x1
  4004ec:	00165613          	srli	x12,x12,0x1
  4004f0:	fe0696e3          	bne	x13,x0,4004dc <__hidden___udivsi3+0x2c>
  4004f4:	00008067          	jalr	x0,0(x1)

004004f8 <__umodsi3>:
  4004f8:	00008293          	addi	x5,x1,0
  4004fc:	fb5ff0ef          	jal	x1,4004b0 <__hidden___udivsi3>
  400500:	00058513          	addi	x10,x11,0
  400504:	00028067          	jalr	x0,0(x5)
  400508:	40a00533          	sub	x10,x0,x10
  40050c:	00b04863          	blt	x0,x11,40051c <__umodsi3+0x24>
  400510:	40b005b3          	sub	x11,x0,x11
  400514:	f9dff06f          	jal	x0,4004b0 <__hidden___udivsi3>
  400518:	40b005b3          	sub	x11,x0,x11
  40051c:	00008293          	addi	x5,x1,0
  400520:	f91ff0ef          	jal	x1,4004b0 <__hidden___udivsi3>
  400524:	40a00533          	sub	x10,x0,x10
  400528:	00028067          	jalr	x0,0(x5)

0040052c <__modsi3>:
  40052c:	00008293          	addi	x5,x1,0
  400530:	0005ca63          	blt	x11,x0,400544 <__modsi3+0x18>
  400534:	00054c63          	blt	x10,x0,40054c <__modsi3+0x20>
  400538:	f79ff0ef          	jal	x1,4004b0 <__hidden___udivsi3>
  40053c:	00058513          	addi	x10,x11,0
  400540:	00028067          	jalr	x0,0(x5)
  400544:	40b005b3          	sub	x11,x0,x11
  400548:	fe0558e3          	bge	x10,x0,400538 <__modsi3+0xc>
  40054c:	40a00533          	sub	x10,x0,x10
  400550:	f61ff0ef          	jal	x1,4004b0 <__hidden___udivsi3>
  400554:	40b00533          	sub	x10,x0,x11
  400558:	00028067          	jalr	x0,0(x5)
