
benchmarks/fibi.elf:     file format elf32-littleriscv


Disassembly of section .text:

00400000 <_start>:
  400000:	050000ef          	jal	x1,400050 <main>
  400004:	00050113          	addi	x2,x10,0
  400008:	00058193          	addi	x3,x11,0
  40000c:	00a00513          	addi	x10,x0,10
  400010:	00000073          	ecall

00400014 <fibi>:
  400014:	02050c63          	beq	x10,x0,40004c <fibi+0x38>
  400018:	00100793          	addi	x15,x0,1
  40001c:	02f50863          	beq	x10,x15,40004c <fibi+0x38>
  400020:	02a7d463          	bge	x15,x10,400048 <fibi+0x34>
  400024:	00200713          	addi	x14,x0,2
  400028:	00000613          	addi	x12,x0,0
  40002c:	00f606b3          	add	x13,x12,x15
  400030:	00170713          	addi	x14,x14,1
  400034:	00078613          	addi	x12,x15,0
  400038:	00068793          	addi	x15,x13,0
  40003c:	fee558e3          	bge	x10,x14,40002c <fibi+0x18>
  400040:	00068513          	addi	x10,x13,0
  400044:	00008067          	jalr	x0,0(x1)
  400048:	fff00513          	addi	x10,x0,-1
  40004c:	00008067          	jalr	x0,0(x1)

00400050 <main>:
  400050:	fe010113          	addi	x2,x2,-32
  400054:	00112e23          	sw	x1,28(x2)
  400058:	00812c23          	sw	x8,24(x2)
  40005c:	00912a23          	sw	x9,20(x2)
  400060:	01212823          	sw	x18,16(x2)
  400064:	01312623          	sw	x19,12(x2)
  400068:	1c000493          	addi	x9,x0,448
  40006c:	00000913          	addi	x18,x0,0
  400070:	00000413          	addi	x8,x0,0
  400074:	00f00993          	addi	x19,x0,15
  400078:	00040513          	addi	x10,x8,0
  40007c:	00000097          	auipc	x1,0x0
  400080:	f98080e7          	jalr	x1,-104(x1) # 400014 <fibi>
  400084:	00a90933          	add	x18,x18,x10
  400088:	00140413          	addi	x8,x8,1
  40008c:	0089a7b3          	slt	x15,x19,x8
  400090:	fff78793          	addi	x15,x15,-1
  400094:	00f47433          	and	x8,x8,x15
  400098:	fff48493          	addi	x9,x9,-1
  40009c:	fc049ee3          	bne	x9,x0,400078 <main+0x28>
  4000a0:	00090513          	addi	x10,x18,0
  4000a4:	01c12083          	lw	x1,28(x2)
  4000a8:	01812403          	lw	x8,24(x2)
  4000ac:	01412483          	lw	x9,20(x2)
  4000b0:	01012903          	lw	x18,16(x2)
  4000b4:	00c12983          	lw	x19,12(x2)
  4000b8:	02010113          	addi	x2,x2,32
  4000bc:	00008067          	jalr	x0,0(x1)
  4000c0:	0000                	unimp
	...
