
benchmarks/fibm.elf:     file format elf32-littleriscv


Disassembly of section .text:

00400000 <_start>:
  400000:	07c000ef          	jal	x1,40007c <main>
  400004:	00050113          	addi	x2,x10,0
  400008:	00058193          	addi	x3,x11,0
  40000c:	00a00513          	addi	x10,x0,10
  400010:	00000073          	ecall

00400014 <fibm>:
  400014:	06050263          	beq	x10,x0,400078 <fibm+0x64>
  400018:	00100793          	addi	x15,x0,1
  40001c:	04f50e63          	beq	x10,x15,400078 <fibm+0x64>
  400020:	100007b7          	lui	x15,0x10000
  400024:	00078793          	addi	x15,x15,0 # 10000000 <fib_seq.1248>
  400028:	0007a023          	sw	x0,0(x15)
  40002c:	00100713          	addi	x14,x0,1
  400030:	00e7a223          	sw	x14,4(x15)
  400034:	02a75863          	bge	x14,x10,400064 <fibm+0x50>
  400038:	100007b7          	lui	x15,0x10000
  40003c:	00078793          	addi	x15,x15,0 # 10000000 <fib_seq.1248>
  400040:	00251613          	slli	x12,x10,0x2
  400044:	ffc78713          	addi	x14,x15,-4
  400048:	00e60633          	add	x12,x12,x14
  40004c:	0047a703          	lw	x14,4(x15)
  400050:	0007a683          	lw	x13,0(x15)
  400054:	00d70733          	add	x14,x14,x13
  400058:	00e7a423          	sw	x14,8(x15)
  40005c:	00478793          	addi	x15,x15,4
  400060:	fec796e3          	bne	x15,x12,40004c <fibm+0x38>
  400064:	00251513          	slli	x10,x10,0x2
  400068:	100007b7          	lui	x15,0x10000
  40006c:	00078793          	addi	x15,x15,0 # 10000000 <fib_seq.1248>
  400070:	00a78533          	add	x10,x15,x10
  400074:	00052503          	lw	x10,0(x10)
  400078:	00008067          	jalr	x0,0(x1)

0040007c <main>:
  40007c:	fe010113          	addi	x2,x2,-32
  400080:	00112e23          	sw	x1,28(x2)
  400084:	00812c23          	sw	x8,24(x2)
  400088:	00912a23          	sw	x9,20(x2)
  40008c:	01212823          	sw	x18,16(x2)
  400090:	01312623          	sw	x19,12(x2)
  400094:	1b000493          	addi	x9,x0,432
  400098:	00000913          	addi	x18,x0,0
  40009c:	00000413          	addi	x8,x0,0
  4000a0:	00f00993          	addi	x19,x0,15
  4000a4:	00040513          	addi	x10,x8,0
  4000a8:	00000097          	auipc	x1,0x0
  4000ac:	f6c080e7          	jalr	x1,-148(x1) # 400014 <fibm>
  4000b0:	00a90933          	add	x18,x18,x10
  4000b4:	00140413          	addi	x8,x8,1
  4000b8:	0089a7b3          	slt	x15,x19,x8
  4000bc:	fff78793          	addi	x15,x15,-1
  4000c0:	00f47433          	and	x8,x8,x15
  4000c4:	fff48493          	addi	x9,x9,-1
  4000c8:	fc049ee3          	bne	x9,x0,4000a4 <main+0x28>
  4000cc:	00090513          	addi	x10,x18,0
  4000d0:	01c12083          	lw	x1,28(x2)
  4000d4:	01812403          	lw	x8,24(x2)
  4000d8:	01412483          	lw	x9,20(x2)
  4000dc:	01012903          	lw	x18,16(x2)
  4000e0:	00c12983          	lw	x19,12(x2)
  4000e4:	02010113          	addi	x2,x2,32
  4000e8:	00008067          	jalr	x0,0(x1)
  4000ec:	0000                	unimp
	...
