
benchmarks/gaussian.elf:     file format elf32-littleriscv


Disassembly of section .text:

00400000 <_start>:
  400000:	160000ef          	jal	x1,400160 <main>
  400004:	00050113          	addi	x2,x10,0
  400008:	00058193          	addi	x3,x11,0
  40000c:	00a00513          	addi	x10,x0,10
  400010:	00000073          	ecall

00400014 <gaussian_blur>:
  400014:	fe010113          	addi	x2,x2,-32
  400018:	00812e23          	sw	x8,28(x2)
  40001c:	00912c23          	sw	x9,24(x2)
  400020:	01212a23          	sw	x18,20(x2)
  400024:	01312823          	sw	x19,16(x2)
  400028:	01412623          	sw	x20,12(x2)
  40002c:	0d858913          	addi	x18,x11,216
  400030:	00c50993          	addi	x19,x10,12
  400034:	00001a37          	lui	x20,0x1
  400038:	008a0a13          	addi	x20,x20,8 # 1008 <_start-0x3feff8>
  40003c:	01458a33          	add	x20,x11,x20
  400040:	100007b7          	lui	x15,0x10000
  400044:	ff478513          	addi	x10,x15,-12 # ffffff4 <main+0xfbffe94>
  400048:	00200293          	addi	x5,x0,2
  40004c:	02400493          	addi	x9,x0,36
  400050:	09c0006f          	jal	x0,4000ec <gaussian_blur+0xd8>
  400054:	40435313          	srai	x6,x6,0x4
  400058:	0063a023          	sw	x6,0(x7)
  40005c:	404e5e13          	srai	x28,x28,0x4
  400060:	01c3a223          	sw	x28,4(x7)
  400064:	404ede93          	srai	x29,x29,0x4
  400068:	01d3a423          	sw	x29,8(x7)
  40006c:	00c38393          	addi	x7,x7,12
  400070:	00c40413          	addi	x8,x8,12
  400074:	07238663          	beq	x7,x18,4000e0 <gaussian_blur+0xcc>
  400078:	00040f93          	addi	x31,x8,0
  40007c:	00000f13          	addi	x30,x0,0
  400080:	00000e93          	addi	x29,x0,0
  400084:	00000e13          	addi	x28,x0,0
  400088:	00000313          	addi	x6,x0,0
  40008c:	01e508b3          	add	x17,x10,x30
  400090:	000f8793          	addi	x15,x31,0
  400094:	fff00813          	addi	x16,x0,-1
  400098:	00180813          	addi	x16,x16,1
  40009c:	00c8a683          	lw	x13,12(x17)
  4000a0:	ff47a583          	lw	x11,-12(x15)
  4000a4:	ff87a603          	lw	x12,-8(x15)
  4000a8:	ffc7a703          	lw	x14,-4(x15)
  4000ac:	00d595b3          	sll	x11,x11,x13
  4000b0:	00b30333          	add	x6,x6,x11
  4000b4:	00d61633          	sll	x12,x12,x13
  4000b8:	00ce0e33          	add	x28,x28,x12
  4000bc:	00d71733          	sll	x14,x14,x13
  4000c0:	00ee8eb3          	add	x29,x29,x14
  4000c4:	00488893          	addi	x17,x17,4
  4000c8:	00c78793          	addi	x15,x15,12
  4000cc:	fc5816e3          	bne	x16,x5,400098 <gaussian_blur+0x84>
  4000d0:	0f0f8f93          	addi	x31,x31,240
  4000d4:	00cf0f13          	addi	x30,x30,12
  4000d8:	fa9f1ae3          	bne	x30,x9,40008c <gaussian_blur+0x78>
  4000dc:	f79ff06f          	jal	x0,400054 <gaussian_blur+0x40>
  4000e0:	0d890913          	addi	x18,x18,216
  4000e4:	0f098993          	addi	x19,x19,240
  4000e8:	01490863          	beq	x18,x20,4000f8 <gaussian_blur+0xe4>
  4000ec:	f2890393          	addi	x7,x18,-216
  4000f0:	00098413          	addi	x8,x19,0
  4000f4:	f85ff06f          	jal	x0,400078 <gaussian_blur+0x64>
  4000f8:	01c12403          	lw	x8,28(x2)
  4000fc:	01812483          	lw	x9,24(x2)
  400100:	01412903          	lw	x18,20(x2)
  400104:	01012983          	lw	x19,16(x2)
  400108:	00c12a03          	lw	x20,12(x2)
  40010c:	02010113          	addi	x2,x2,32
  400110:	00008067          	jalr	x0,0(x1)

00400114 <checksum>:
  400114:	00001837          	lui	x16,0x1
  400118:	f3080813          	addi	x16,x16,-208 # f30 <_start-0x3ff0d0>
  40011c:	01050833          	add	x16,x10,x16
  400120:	00000693          	addi	x13,x0,0
  400124:	00000713          	addi	x14,x0,0
  400128:	00000793          	addi	x15,x0,0
  40012c:	0d850593          	addi	x11,x10,216
  400130:	00052603          	lw	x12,0(x10)
  400134:	00c787b3          	add	x15,x15,x12
  400138:	00452603          	lw	x12,4(x10)
  40013c:	00c70733          	add	x14,x14,x12
  400140:	00852603          	lw	x12,8(x10)
  400144:	00c686b3          	add	x13,x13,x12
  400148:	00c50513          	addi	x10,x10,12
  40014c:	fea592e3          	bne	x11,x10,400130 <checksum+0x1c>
  400150:	fd051ee3          	bne	x10,x16,40012c <checksum+0x18>
  400154:	00d7c7b3          	xor	x15,x15,x13
  400158:	00e7c533          	xor	x10,x15,x14
  40015c:	00008067          	jalr	x0,0(x1)

00400160 <main>:
  400160:	ff010113          	addi	x2,x2,-16
  400164:	00112623          	sw	x1,12(x2)
  400168:	00812423          	sw	x8,8(x2)
  40016c:	10002437          	lui	x8,0x10002
  400170:	14840593          	addi	x11,x8,328 # 10002148 <blur_image>
  400174:	10001537          	lui	x10,0x10001
  400178:	e8850513          	addi	x10,x10,-376 # 10000e88 <image>
  40017c:	e99ff0ef          	jal	x1,400014 <gaussian_blur>
  400180:	14840513          	addi	x10,x8,328
  400184:	00000097          	auipc	x1,0x0
  400188:	f90080e7          	jalr	x1,-112(x1) # 400114 <checksum>
  40018c:	00c12083          	lw	x1,12(x2)
  400190:	00812403          	lw	x8,8(x2)
  400194:	01010113          	addi	x2,x2,16
  400198:	00008067          	jalr	x0,0(x1)
  40019c:	0000                	unimp
	...
