
benchmarks/max_path_sum.elf:     file format elf32-littleriscv


Disassembly of section .text:

00400000 <_start>:
  400000:	14c000ef          	jal	x1,40014c <main>
  400004:	00050113          	addi	x2,x10,0
  400008:	00058193          	addi	x3,x11,0
  40000c:	00a00513          	addi	x10,x0,10
  400010:	00000073          	ecall

00400014 <max_path_sum>:
  400014:	0e054c63          	blt	x10,x0,40010c <max_path_sum+0xf8>
  400018:	0e05ce63          	blt	x11,x0,400114 <max_path_sum+0x100>
  40001c:	00b567b3          	or	x15,x10,x11
  400020:	02078c63          	beq	x15,x0,400058 <max_path_sum+0x44>
  400024:	00251793          	slli	x15,x10,0x2
  400028:	00a787b3          	add	x15,x15,x10
  40002c:	00179793          	slli	x15,x15,0x1
  400030:	00b787b3          	add	x15,x15,x11
  400034:	00279793          	slli	x15,x15,0x2
  400038:	10002737          	lui	x14,0x10002
  40003c:	12470713          	addi	x14,x14,292 # 10002124 <memo>
  400040:	00f707b3          	add	x15,x14,x15
  400044:	0007a783          	lw	x15,0(x15)
  400048:	fff00713          	addi	x14,x0,-1
  40004c:	00e78c63          	beq	x15,x14,400064 <max_path_sum+0x50>
  400050:	00078513          	addi	x10,x15,0
  400054:	00008067          	jalr	x0,0(x1)
  400058:	100007b7          	lui	x15,0x10000
  40005c:	0007a783          	lw	x15,0(x15) # 10000000 <grid>
  400060:	ff1ff06f          	jal	x0,400050 <max_path_sum+0x3c>
  400064:	ff010113          	addi	x2,x2,-16
  400068:	00112623          	sw	x1,12(x2)
  40006c:	00812423          	sw	x8,8(x2)
  400070:	00912223          	sw	x9,4(x2)
  400074:	01212023          	sw	x18,0(x2)
  400078:	00058493          	addi	x9,x11,0
  40007c:	00050413          	addi	x8,x10,0
  400080:	fff58593          	addi	x11,x11,-1
  400084:	f91ff0ef          	jal	x1,400014 <max_path_sum>
  400088:	00050913          	addi	x18,x10,0
  40008c:	00048593          	addi	x11,x9,0
  400090:	fff40513          	addi	x10,x8,-1
  400094:	f81ff0ef          	jal	x1,400014 <max_path_sum>
  400098:	00241793          	slli	x15,x8,0x2
  40009c:	008787b3          	add	x15,x15,x8
  4000a0:	00179793          	slli	x15,x15,0x1
  4000a4:	009787b3          	add	x15,x15,x9
  4000a8:	00279793          	slli	x15,x15,0x2
  4000ac:	10000737          	lui	x14,0x10000
  4000b0:	00070713          	addi	x14,x14,0 # 10000000 <grid>
  4000b4:	00f70733          	add	x14,x14,x15
  4000b8:	00090793          	addi	x15,x18,0
  4000bc:	00a95463          	bge	x18,x10,4000c4 <max_path_sum+0xb0>
  4000c0:	00050793          	addi	x15,x10,0
  4000c4:	00072503          	lw	x10,0(x14)
  4000c8:	00a787b3          	add	x15,x15,x10
  4000cc:	00241593          	slli	x11,x8,0x2
  4000d0:	008585b3          	add	x11,x11,x8
  4000d4:	00159593          	slli	x11,x11,0x1
  4000d8:	009585b3          	add	x11,x11,x9
  4000dc:	00259593          	slli	x11,x11,0x2
  4000e0:	10002737          	lui	x14,0x10002
  4000e4:	12470713          	addi	x14,x14,292 # 10002124 <memo>
  4000e8:	00b705b3          	add	x11,x14,x11
  4000ec:	00f5a023          	sw	x15,0(x11)
  4000f0:	00078513          	addi	x10,x15,0
  4000f4:	00c12083          	lw	x1,12(x2)
  4000f8:	00812403          	lw	x8,8(x2)
  4000fc:	00412483          	lw	x9,4(x2)
  400100:	00012903          	lw	x18,0(x2)
  400104:	01010113          	addi	x2,x2,16
  400108:	00008067          	jalr	x0,0(x1)
  40010c:	800007b7          	lui	x15,0x80000
  400110:	f41ff06f          	jal	x0,400050 <max_path_sum+0x3c>
  400114:	800007b7          	lui	x15,0x80000
  400118:	f39ff06f          	jal	x0,400050 <max_path_sum+0x3c>

0040011c <initialize_memo>:
  40011c:	100027b7          	lui	x15,0x10002
  400120:	12478793          	addi	x15,x15,292 # 10002124 <memo>
  400124:	2d078613          	addi	x12,x15,720
  400128:	fff00693          	addi	x13,x0,-1
  40012c:	0080006f          	jal	x0,400134 <initialize_memo+0x18>
  400130:	00c78c63          	beq	x15,x12,400148 <initialize_memo+0x2c>
  400134:	02878713          	addi	x14,x15,40
  400138:	00d7a023          	sw	x13,0(x15)
  40013c:	00478793          	addi	x15,x15,4
  400140:	fee79ce3          	bne	x15,x14,400138 <initialize_memo+0x1c>
  400144:	fedff06f          	jal	x0,400130 <initialize_memo+0x14>
  400148:	00008067          	jalr	x0,0(x1)

0040014c <main>:
  40014c:	ff010113          	addi	x2,x2,-16
  400150:	00112623          	sw	x1,12(x2)
  400154:	00000097          	auipc	x1,0x0
  400158:	fc8080e7          	jalr	x1,-56(x1) # 40011c <initialize_memo>
  40015c:	00900593          	addi	x11,x0,9
  400160:	01100513          	addi	x10,x0,17
  400164:	eb1ff0ef          	jal	x1,400014 <max_path_sum>
  400168:	00c12083          	lw	x1,12(x2)
  40016c:	01010113          	addi	x2,x2,16
  400170:	00008067          	jalr	x0,0(x1)
  400174:	0000                	unimp
	...
