
benchmarks/mixed.elf:     file format elf32-littleriscv


Disassembly of section .text:

00400000 <_start>:
  400000:	191000ef          	jal	x1,400990 <main>
  400004:	00050113          	addi	x2,x10,0
  400008:	00058193          	addi	x3,x11,0
  40000c:	00a00513          	addi	x10,x0,10
  400010:	00000073          	ecall

00400014 <fibi0>:
  400014:	08050063          	beq	x10,x0,400094 <fibi0+0x80>
  400018:	00100793          	addi	x15,x0,1
  40001c:	06f50c63          	beq	x10,x15,400094 <fibi0+0x80>
  400020:	06a7dc63          	bge	x15,x10,400098 <fibi0+0x84>
  400024:	00200713          	addi	x14,x0,2
  400028:	00000613          	addi	x12,x0,0
  40002c:	00f606b3          	add	x13,x12,x15
  400030:	00170713          	addi	x14,x14,1
  400034:	00078613          	addi	x12,x15,0
  400038:	00068793          	addi	x15,x13,0
  40003c:	fee558e3          	bge	x10,x14,40002c <fibi0+0x18>
  400040:	10000637          	lui	x12,0x10000
  400044:	5bc62783          	lw	x15,1468(x12) # 100005bc <bufi>
  400048:	00178713          	addi	x14,x15,1
  40004c:	5ae62e23          	sw	x14,1468(x12)
  400050:	00171793          	slli	x15,x14,0x1
  400054:	00e787b3          	add	x15,x15,x14
  400058:	00279793          	slli	x15,x15,0x2
  40005c:	40e787b3          	sub	x15,x15,x14
  400060:	41f7d713          	srai	x14,x15,0x1f
  400064:	01775713          	srli	x14,x14,0x17
  400068:	00e787b3          	add	x15,x15,x14
  40006c:	1ff7f793          	andi	x15,x15,511
  400070:	40e787b3          	sub	x15,x15,x14
  400074:	00279793          	slli	x15,x15,0x2
  400078:	10000737          	lui	x14,0x10000
  40007c:	5c070713          	addi	x14,x14,1472 # 100005c0 <buf>
  400080:	00e787b3          	add	x15,x15,x14
  400084:	0007a703          	lw	x14,0(x15)
  400088:	00d70733          	add	x14,x14,x13
  40008c:	00e7a023          	sw	x14,0(x15)
  400090:	00068513          	addi	x10,x13,0
  400094:	00008067          	jalr	x0,0(x1)
  400098:	fff00693          	addi	x13,x0,-1
  40009c:	fa5ff06f          	jal	x0,400040 <fibi0+0x2c>

004000a0 <fibi1>:
  4000a0:	08050063          	beq	x10,x0,400120 <fibi1+0x80>
  4000a4:	00100793          	addi	x15,x0,1
  4000a8:	06f50c63          	beq	x10,x15,400120 <fibi1+0x80>
  4000ac:	06a7dc63          	bge	x15,x10,400124 <fibi1+0x84>
  4000b0:	00200713          	addi	x14,x0,2
  4000b4:	00000613          	addi	x12,x0,0
  4000b8:	00f606b3          	add	x13,x12,x15
  4000bc:	00170713          	addi	x14,x14,1
  4000c0:	00078613          	addi	x12,x15,0
  4000c4:	00068793          	addi	x15,x13,0
  4000c8:	fee558e3          	bge	x10,x14,4000b8 <fibi1+0x18>
  4000cc:	10000637          	lui	x12,0x10000
  4000d0:	5bc62783          	lw	x15,1468(x12) # 100005bc <bufi>
  4000d4:	00178713          	addi	x14,x15,1
  4000d8:	5ae62e23          	sw	x14,1468(x12)
  4000dc:	00171793          	slli	x15,x14,0x1
  4000e0:	00e787b3          	add	x15,x15,x14
  4000e4:	00279793          	slli	x15,x15,0x2
  4000e8:	00e787b3          	add	x15,x15,x14
  4000ec:	41f7d713          	srai	x14,x15,0x1f
  4000f0:	01775713          	srli	x14,x14,0x17
  4000f4:	00e787b3          	add	x15,x15,x14
  4000f8:	1ff7f793          	andi	x15,x15,511
  4000fc:	40e787b3          	sub	x15,x15,x14
  400100:	00279793          	slli	x15,x15,0x2
  400104:	10000737          	lui	x14,0x10000
  400108:	5c070713          	addi	x14,x14,1472 # 100005c0 <buf>
  40010c:	00e787b3          	add	x15,x15,x14
  400110:	0007a703          	lw	x14,0(x15)
  400114:	00d70733          	add	x14,x14,x13
  400118:	00e7a023          	sw	x14,0(x15)
  40011c:	00068513          	addi	x10,x13,0
  400120:	00008067          	jalr	x0,0(x1)
  400124:	fff00693          	addi	x13,x0,-1
  400128:	fa5ff06f          	jal	x0,4000cc <fibi1+0x2c>

0040012c <fibi2>:
  40012c:	06050c63          	beq	x10,x0,4001a4 <fibi2+0x78>
  400130:	00100793          	addi	x15,x0,1
  400134:	06f50863          	beq	x10,x15,4001a4 <fibi2+0x78>
  400138:	06a7d863          	bge	x15,x10,4001a8 <fibi2+0x7c>
  40013c:	00200713          	addi	x14,x0,2
  400140:	00000613          	addi	x12,x0,0
  400144:	00f606b3          	add	x13,x12,x15
  400148:	00170713          	addi	x14,x14,1
  40014c:	00078613          	addi	x12,x15,0
  400150:	00068793          	addi	x15,x13,0
  400154:	fee558e3          	bge	x10,x14,400144 <fibi2+0x18>
  400158:	10000637          	lui	x12,0x10000
  40015c:	5bc62783          	lw	x15,1468(x12) # 100005bc <bufi>
  400160:	00178713          	addi	x14,x15,1
  400164:	5ae62e23          	sw	x14,1468(x12)
  400168:	00471793          	slli	x15,x14,0x4
  40016c:	00e787b3          	add	x15,x15,x14
  400170:	41f7d713          	srai	x14,x15,0x1f
  400174:	01775713          	srli	x14,x14,0x17
  400178:	00e787b3          	add	x15,x15,x14
  40017c:	1ff7f793          	andi	x15,x15,511
  400180:	40e787b3          	sub	x15,x15,x14
  400184:	00279793          	slli	x15,x15,0x2
  400188:	10000737          	lui	x14,0x10000
  40018c:	5c070713          	addi	x14,x14,1472 # 100005c0 <buf>
  400190:	00e787b3          	add	x15,x15,x14
  400194:	0007a703          	lw	x14,0(x15)
  400198:	00d70733          	add	x14,x14,x13
  40019c:	00e7a023          	sw	x14,0(x15)
  4001a0:	00068513          	addi	x10,x13,0
  4001a4:	00008067          	jalr	x0,0(x1)
  4001a8:	fff00693          	addi	x13,x0,-1
  4001ac:	fadff06f          	jal	x0,400158 <fibi2+0x2c>

004001b0 <fibi3>:
  4001b0:	08050063          	beq	x10,x0,400230 <fibi3+0x80>
  4001b4:	00100793          	addi	x15,x0,1
  4001b8:	06f50c63          	beq	x10,x15,400230 <fibi3+0x80>
  4001bc:	06a7dc63          	bge	x15,x10,400234 <fibi3+0x84>
  4001c0:	00200713          	addi	x14,x0,2
  4001c4:	00000613          	addi	x12,x0,0
  4001c8:	00f606b3          	add	x13,x12,x15
  4001cc:	00170713          	addi	x14,x14,1
  4001d0:	00078613          	addi	x12,x15,0
  4001d4:	00068793          	addi	x15,x13,0
  4001d8:	fee558e3          	bge	x10,x14,4001c8 <fibi3+0x18>
  4001dc:	10000637          	lui	x12,0x10000
  4001e0:	5bc62783          	lw	x15,1468(x12) # 100005bc <bufi>
  4001e4:	00178713          	addi	x14,x15,1
  4001e8:	5ae62e23          	sw	x14,1468(x12)
  4001ec:	00271793          	slli	x15,x14,0x2
  4001f0:	00e787b3          	add	x15,x15,x14
  4001f4:	00279793          	slli	x15,x15,0x2
  4001f8:	40e787b3          	sub	x15,x15,x14
  4001fc:	41f7d713          	srai	x14,x15,0x1f
  400200:	01775713          	srli	x14,x14,0x17
  400204:	00e787b3          	add	x15,x15,x14
  400208:	1ff7f793          	andi	x15,x15,511
  40020c:	40e787b3          	sub	x15,x15,x14
  400210:	00279793          	slli	x15,x15,0x2
  400214:	10000737          	lui	x14,0x10000
  400218:	5c070713          	addi	x14,x14,1472 # 100005c0 <buf>
  40021c:	00e787b3          	add	x15,x15,x14
  400220:	0007a703          	lw	x14,0(x15)
  400224:	00d70733          	add	x14,x14,x13
  400228:	00e7a023          	sw	x14,0(x15)
  40022c:	00068513          	addi	x10,x13,0
  400230:	00008067          	jalr	x0,0(x1)
  400234:	fff00693          	addi	x13,x0,-1
  400238:	fa5ff06f          	jal	x0,4001dc <fibi3+0x2c>

0040023c <fibi>:
  40023c:	ff010113          	addi	x2,x2,-16
  400240:	00112623          	sw	x1,12(x2)
  400244:	10000737          	lui	x14,0x10000
  400248:	5b872783          	lw	x15,1464(x14) # 100005b8 <i.1290>
  40024c:	00178693          	addi	x13,x15,1
  400250:	5ad72c23          	sw	x13,1464(x14)
  400254:	41f7d713          	srai	x14,x15,0x1f
  400258:	01e75713          	srli	x14,x14,0x1e
  40025c:	00e787b3          	add	x15,x15,x14
  400260:	0037f793          	andi	x15,x15,3
  400264:	40e787b3          	sub	x15,x15,x14
  400268:	00100713          	addi	x14,x0,1
  40026c:	02e78c63          	beq	x15,x14,4002a4 <fibi+0x68>
  400270:	02f75063          	bge	x14,x15,400290 <fibi+0x54>
  400274:	00200713          	addi	x14,x0,2
  400278:	02e78c63          	beq	x15,x14,4002b0 <fibi+0x74>
  40027c:	00300713          	addi	x14,x0,3
  400280:	02e79c63          	bne	x15,x14,4002b8 <fibi+0x7c>
  400284:	00000097          	auipc	x1,0x0
  400288:	f2c080e7          	jalr	x1,-212(x1) # 4001b0 <fibi3>
  40028c:	00c0006f          	jal	x0,400298 <fibi+0x5c>
  400290:	02079463          	bne	x15,x0,4002b8 <fibi+0x7c>
  400294:	d81ff0ef          	jal	x1,400014 <fibi0>
  400298:	00c12083          	lw	x1,12(x2)
  40029c:	01010113          	addi	x2,x2,16
  4002a0:	00008067          	jalr	x0,0(x1)
  4002a4:	00000097          	auipc	x1,0x0
  4002a8:	dfc080e7          	jalr	x1,-516(x1) # 4000a0 <fibi1>
  4002ac:	fedff06f          	jal	x0,400298 <fibi+0x5c>
  4002b0:	e7dff0ef          	jal	x1,40012c <fibi2>
  4002b4:	fe5ff06f          	jal	x0,400298 <fibi+0x5c>
  4002b8:	f9c00513          	addi	x10,x0,-100
  4002bc:	fddff06f          	jal	x0,400298 <fibi+0x5c>

004002c0 <fibm0>:
  4002c0:	05a00793          	addi	x15,x0,90
  4002c4:	10a7c463          	blt	x15,x10,4003cc <fibm0+0x10c>
  4002c8:	10050a63          	beq	x10,x0,4003dc <fibm0+0x11c>
  4002cc:	00100793          	addi	x15,x0,1
  4002d0:	10f50663          	beq	x10,x15,4003dc <fibm0+0x11c>
  4002d4:	100007b7          	lui	x15,0x10000
  4002d8:	00078793          	addi	x15,x15,0 # 10000000 <fib_seq.1299>
  4002dc:	0007a023          	sw	x0,0(x15)
  4002e0:	00100713          	addi	x14,x0,1
  4002e4:	00e7a223          	sw	x14,4(x15)
  4002e8:	06a75e63          	bge	x14,x10,400364 <fibm0+0xa4>
  4002ec:	100007b7          	lui	x15,0x10000
  4002f0:	00078793          	addi	x15,x15,0 # 10000000 <fib_seq.1299>
  4002f4:	00251613          	slli	x12,x10,0x2
  4002f8:	ffc78713          	addi	x14,x15,-4
  4002fc:	00e60633          	add	x12,x12,x14
  400300:	0047a703          	lw	x14,4(x15)
  400304:	0007a683          	lw	x13,0(x15)
  400308:	00d70733          	add	x14,x14,x13
  40030c:	00e7a423          	sw	x14,8(x15)
  400310:	00478793          	addi	x15,x15,4
  400314:	fec796e3          	bne	x15,x12,400300 <fibm0+0x40>
  400318:	10000737          	lui	x14,0x10000
  40031c:	00070713          	addi	x14,x14,0 # 10000000 <fib_seq.1299>
  400320:	00472683          	lw	x13,4(x14)
  400324:	00072603          	lw	x12,0(x14)
  400328:	00c686b3          	add	x13,x13,x12
  40032c:	00872703          	lw	x14,8(x14)
  400330:	0ad71263          	bne	x14,x13,4003d4 <fibm0+0x114>
  400334:	10000737          	lui	x14,0x10000
  400338:	00470713          	addi	x14,x14,4 # 10000004 <fib_seq.1299+0x4>
  40033c:	02f70463          	beq	x14,x15,400364 <fibm0+0xa4>
  400340:	00070613          	addi	x12,x14,0
  400344:	00470713          	addi	x14,x14,4
  400348:	00462683          	lw	x13,4(x12)
  40034c:	00062583          	lw	x11,0(x12)
  400350:	00b686b3          	add	x13,x13,x11
  400354:	00862603          	lw	x12,8(x12)
  400358:	fed602e3          	beq	x12,x13,40033c <fibm0+0x7c>
  40035c:	ffd00513          	addi	x10,x0,-3
  400360:	00008067          	jalr	x0,0(x1)
  400364:	100006b7          	lui	x13,0x10000
  400368:	5bc6a783          	lw	x15,1468(x13) # 100005bc <bufi>
  40036c:	00178713          	addi	x14,x15,1
  400370:	5ae6ae23          	sw	x14,1468(x13)
  400374:	00171793          	slli	x15,x14,0x1
  400378:	00e787b3          	add	x15,x15,x14
  40037c:	00379793          	slli	x15,x15,0x3
  400380:	40e787b3          	sub	x15,x15,x14
  400384:	41f7d713          	srai	x14,x15,0x1f
  400388:	01775713          	srli	x14,x14,0x17
  40038c:	00e787b3          	add	x15,x15,x14
  400390:	1ff7f793          	andi	x15,x15,511
  400394:	40e787b3          	sub	x15,x15,x14
  400398:	00251513          	slli	x10,x10,0x2
  40039c:	10000737          	lui	x14,0x10000
  4003a0:	00070713          	addi	x14,x14,0 # 10000000 <fib_seq.1299>
  4003a4:	00a70533          	add	x10,x14,x10
  4003a8:	00052503          	lw	x10,0(x10)
  4003ac:	00279793          	slli	x15,x15,0x2
  4003b0:	10000737          	lui	x14,0x10000
  4003b4:	5c070713          	addi	x14,x14,1472 # 100005c0 <buf>
  4003b8:	00e787b3          	add	x15,x15,x14
  4003bc:	0007a703          	lw	x14,0(x15)
  4003c0:	00a70733          	add	x14,x14,x10
  4003c4:	00e7a023          	sw	x14,0(x15)
  4003c8:	00008067          	jalr	x0,0(x1)
  4003cc:	ffe00513          	addi	x10,x0,-2
  4003d0:	00008067          	jalr	x0,0(x1)
  4003d4:	ffd00513          	addi	x10,x0,-3
  4003d8:	00008067          	jalr	x0,0(x1)
  4003dc:	00008067          	jalr	x0,0(x1)

004003e0 <fibm1>:
  4003e0:	05a00793          	addi	x15,x0,90
  4003e4:	10a7c663          	blt	x15,x10,4004f0 <fibm1+0x110>
  4003e8:	10050c63          	beq	x10,x0,400500 <fibm1+0x120>
  4003ec:	00100793          	addi	x15,x0,1
  4003f0:	10f50863          	beq	x10,x15,400500 <fibm1+0x120>
  4003f4:	100007b7          	lui	x15,0x10000
  4003f8:	00078793          	addi	x15,x15,0 # 10000000 <fib_seq.1299>
  4003fc:	1607a623          	sw	x0,364(x15)
  400400:	00100713          	addi	x14,x0,1
  400404:	16e7a823          	sw	x14,368(x15)
  400408:	08a75063          	bge	x14,x10,400488 <fibm1+0xa8>
  40040c:	10000737          	lui	x14,0x10000
  400410:	00070713          	addi	x14,x14,0 # 10000000 <fib_seq.1299>
  400414:	16c70793          	addi	x15,x14,364
  400418:	00251613          	slli	x12,x10,0x2
  40041c:	16870713          	addi	x14,x14,360
  400420:	00e60633          	add	x12,x12,x14
  400424:	0047a703          	lw	x14,4(x15)
  400428:	0007a683          	lw	x13,0(x15)
  40042c:	00d70733          	add	x14,x14,x13
  400430:	00e7a423          	sw	x14,8(x15)
  400434:	00478793          	addi	x15,x15,4
  400438:	fec796e3          	bne	x15,x12,400424 <fibm1+0x44>
  40043c:	10000737          	lui	x14,0x10000
  400440:	00070713          	addi	x14,x14,0 # 10000000 <fib_seq.1299>
  400444:	17072683          	lw	x13,368(x14)
  400448:	16c72603          	lw	x12,364(x14)
  40044c:	00c686b3          	add	x13,x13,x12
  400450:	17472703          	lw	x14,372(x14)
  400454:	0ad71263          	bne	x14,x13,4004f8 <fibm1+0x118>
  400458:	10000737          	lui	x14,0x10000
  40045c:	17070713          	addi	x14,x14,368 # 10000170 <fib_seq.1310+0x4>
  400460:	02f70463          	beq	x14,x15,400488 <fibm1+0xa8>
  400464:	00070613          	addi	x12,x14,0
  400468:	00470713          	addi	x14,x14,4
  40046c:	00462683          	lw	x13,4(x12)
  400470:	00062583          	lw	x11,0(x12)
  400474:	00b686b3          	add	x13,x13,x11
  400478:	00862603          	lw	x12,8(x12)
  40047c:	fed602e3          	beq	x12,x13,400460 <fibm1+0x80>
  400480:	ffd00513          	addi	x10,x0,-3
  400484:	00008067          	jalr	x0,0(x1)
  400488:	100006b7          	lui	x13,0x10000
  40048c:	5bc6a783          	lw	x15,1468(x13) # 100005bc <bufi>
  400490:	00178713          	addi	x14,x15,1
  400494:	5ae6ae23          	sw	x14,1468(x13)
  400498:	00371793          	slli	x15,x14,0x3
  40049c:	40e787b3          	sub	x15,x15,x14
  4004a0:	00279793          	slli	x15,x15,0x2
  4004a4:	00e787b3          	add	x15,x15,x14
  4004a8:	41f7d713          	srai	x14,x15,0x1f
  4004ac:	01775713          	srli	x14,x14,0x17
  4004b0:	00e787b3          	add	x15,x15,x14
  4004b4:	1ff7f793          	andi	x15,x15,511
  4004b8:	40e787b3          	sub	x15,x15,x14
  4004bc:	00251513          	slli	x10,x10,0x2
  4004c0:	10000737          	lui	x14,0x10000
  4004c4:	00070713          	addi	x14,x14,0 # 10000000 <fib_seq.1299>
  4004c8:	00a70533          	add	x10,x14,x10
  4004cc:	16c52503          	lw	x10,364(x10)
  4004d0:	00279793          	slli	x15,x15,0x2
  4004d4:	10000737          	lui	x14,0x10000
  4004d8:	5c070713          	addi	x14,x14,1472 # 100005c0 <buf>
  4004dc:	00e787b3          	add	x15,x15,x14
  4004e0:	0007a703          	lw	x14,0(x15)
  4004e4:	00a70733          	add	x14,x14,x10
  4004e8:	00e7a023          	sw	x14,0(x15)
  4004ec:	00008067          	jalr	x0,0(x1)
  4004f0:	ffe00513          	addi	x10,x0,-2
  4004f4:	00008067          	jalr	x0,0(x1)
  4004f8:	ffd00513          	addi	x10,x0,-3
  4004fc:	00008067          	jalr	x0,0(x1)
  400500:	00008067          	jalr	x0,0(x1)

00400504 <fibm2>:
  400504:	05a00793          	addi	x15,x0,90
  400508:	10a7c263          	blt	x15,x10,40060c <fibm2+0x108>
  40050c:	10050863          	beq	x10,x0,40061c <fibm2+0x118>
  400510:	00100793          	addi	x15,x0,1
  400514:	10f50463          	beq	x10,x15,40061c <fibm2+0x118>
  400518:	100007b7          	lui	x15,0x10000
  40051c:	00078793          	addi	x15,x15,0 # 10000000 <fib_seq.1299>
  400520:	2c07ac23          	sw	x0,728(x15)
  400524:	00100713          	addi	x14,x0,1
  400528:	2ce7ae23          	sw	x14,732(x15)
  40052c:	08a75063          	bge	x14,x10,4005ac <fibm2+0xa8>
  400530:	10000737          	lui	x14,0x10000
  400534:	00070713          	addi	x14,x14,0 # 10000000 <fib_seq.1299>
  400538:	2d870793          	addi	x15,x14,728
  40053c:	00251613          	slli	x12,x10,0x2
  400540:	2d470713          	addi	x14,x14,724
  400544:	00e60633          	add	x12,x12,x14
  400548:	0047a703          	lw	x14,4(x15)
  40054c:	0007a683          	lw	x13,0(x15)
  400550:	00d70733          	add	x14,x14,x13
  400554:	00e7a423          	sw	x14,8(x15)
  400558:	00478793          	addi	x15,x15,4
  40055c:	fec796e3          	bne	x15,x12,400548 <fibm2+0x44>
  400560:	10000737          	lui	x14,0x10000
  400564:	00070713          	addi	x14,x14,0 # 10000000 <fib_seq.1299>
  400568:	2dc72683          	lw	x13,732(x14)
  40056c:	2d872603          	lw	x12,728(x14)
  400570:	00c686b3          	add	x13,x13,x12
  400574:	2e072703          	lw	x14,736(x14)
  400578:	08d71e63          	bne	x14,x13,400614 <fibm2+0x110>
  40057c:	10000737          	lui	x14,0x10000
  400580:	2dc70713          	addi	x14,x14,732 # 100002dc <fib_seq.1321+0x4>
  400584:	02f70463          	beq	x14,x15,4005ac <fibm2+0xa8>
  400588:	00070613          	addi	x12,x14,0
  40058c:	00470713          	addi	x14,x14,4
  400590:	00462683          	lw	x13,4(x12)
  400594:	00062583          	lw	x11,0(x12)
  400598:	00b686b3          	add	x13,x13,x11
  40059c:	00862603          	lw	x12,8(x12)
  4005a0:	fed602e3          	beq	x12,x13,400584 <fibm2+0x80>
  4005a4:	ffd00513          	addi	x10,x0,-3
  4005a8:	00008067          	jalr	x0,0(x1)
  4005ac:	100006b7          	lui	x13,0x10000
  4005b0:	5bc6a783          	lw	x15,1468(x13) # 100005bc <bufi>
  4005b4:	00178713          	addi	x14,x15,1
  4005b8:	5ae6ae23          	sw	x14,1468(x13)
  4005bc:	00571793          	slli	x15,x14,0x5
  4005c0:	40e787b3          	sub	x15,x15,x14
  4005c4:	41f7d713          	srai	x14,x15,0x1f
  4005c8:	01775713          	srli	x14,x14,0x17
  4005cc:	00e787b3          	add	x15,x15,x14
  4005d0:	1ff7f793          	andi	x15,x15,511
  4005d4:	40e787b3          	sub	x15,x15,x14
  4005d8:	00251513          	slli	x10,x10,0x2
  4005dc:	10000737          	lui	x14,0x10000
  4005e0:	00070713          	addi	x14,x14,0 # 10000000 <fib_seq.1299>
  4005e4:	00a70533          	add	x10,x14,x10
  4005e8:	2d852503          	lw	x10,728(x10)
  4005ec:	00279793          	slli	x15,x15,0x2
  4005f0:	10000737          	lui	x14,0x10000
  4005f4:	5c070713          	addi	x14,x14,1472 # 100005c0 <buf>
  4005f8:	00e787b3          	add	x15,x15,x14
  4005fc:	0007a703          	lw	x14,0(x15)
  400600:	00a70733          	add	x14,x14,x10
  400604:	00e7a023          	sw	x14,0(x15)
  400608:	00008067          	jalr	x0,0(x1)
  40060c:	ffe00513          	addi	x10,x0,-2
  400610:	00008067          	jalr	x0,0(x1)
  400614:	ffd00513          	addi	x10,x0,-3
  400618:	00008067          	jalr	x0,0(x1)
  40061c:	00008067          	jalr	x0,0(x1)

00400620 <fibm3>:
  400620:	05a00793          	addi	x15,x0,90
  400624:	10a7c663          	blt	x15,x10,400730 <fibm3+0x110>
  400628:	10050c63          	beq	x10,x0,400740 <fibm3+0x120>
  40062c:	00100793          	addi	x15,x0,1
  400630:	10f50863          	beq	x10,x15,400740 <fibm3+0x120>
  400634:	100007b7          	lui	x15,0x10000
  400638:	00078793          	addi	x15,x15,0 # 10000000 <fib_seq.1299>
  40063c:	4407a223          	sw	x0,1092(x15)
  400640:	00100713          	addi	x14,x0,1
  400644:	44e7a423          	sw	x14,1096(x15)
  400648:	08a75063          	bge	x14,x10,4006c8 <fibm3+0xa8>
  40064c:	10000737          	lui	x14,0x10000
  400650:	00070713          	addi	x14,x14,0 # 10000000 <fib_seq.1299>
  400654:	44470793          	addi	x15,x14,1092
  400658:	00251613          	slli	x12,x10,0x2
  40065c:	44070713          	addi	x14,x14,1088
  400660:	00e60633          	add	x12,x12,x14
  400664:	0047a703          	lw	x14,4(x15)
  400668:	0007a683          	lw	x13,0(x15)
  40066c:	00d70733          	add	x14,x14,x13
  400670:	00e7a423          	sw	x14,8(x15)
  400674:	00478793          	addi	x15,x15,4
  400678:	fec796e3          	bne	x15,x12,400664 <fibm3+0x44>
  40067c:	10000737          	lui	x14,0x10000
  400680:	00070713          	addi	x14,x14,0 # 10000000 <fib_seq.1299>
  400684:	44872683          	lw	x13,1096(x14)
  400688:	44472603          	lw	x12,1092(x14)
  40068c:	00c686b3          	add	x13,x13,x12
  400690:	44c72703          	lw	x14,1100(x14)
  400694:	0ad71263          	bne	x14,x13,400738 <fibm3+0x118>
  400698:	10000737          	lui	x14,0x10000
  40069c:	44870713          	addi	x14,x14,1096 # 10000448 <fib_seq.1332+0x4>
  4006a0:	02f70463          	beq	x14,x15,4006c8 <fibm3+0xa8>
  4006a4:	00070613          	addi	x12,x14,0
  4006a8:	00470713          	addi	x14,x14,4
  4006ac:	00462683          	lw	x13,4(x12)
  4006b0:	00062583          	lw	x11,0(x12)
  4006b4:	00b686b3          	add	x13,x13,x11
  4006b8:	00862603          	lw	x12,8(x12)
  4006bc:	fed602e3          	beq	x12,x13,4006a0 <fibm3+0x80>
  4006c0:	ffd00513          	addi	x10,x0,-3
  4006c4:	00008067          	jalr	x0,0(x1)
  4006c8:	100006b7          	lui	x13,0x10000
  4006cc:	5bc6a783          	lw	x15,1468(x13) # 100005bc <bufi>
  4006d0:	00178713          	addi	x14,x15,1
  4006d4:	5ae6ae23          	sw	x14,1468(x13)
  4006d8:	00371793          	slli	x15,x14,0x3
  4006dc:	00e787b3          	add	x15,x15,x14
  4006e0:	00279793          	slli	x15,x15,0x2
  4006e4:	00e787b3          	add	x15,x15,x14
  4006e8:	41f7d713          	srai	x14,x15,0x1f
  4006ec:	01775713          	srli	x14,x14,0x17
  4006f0:	00e787b3          	add	x15,x15,x14
  4006f4:	1ff7f793          	andi	x15,x15,511
  4006f8:	40e787b3          	sub	x15,x15,x14
  4006fc:	00251513          	slli	x10,x10,0x2
  400700:	10000737          	lui	x14,0x10000
  400704:	00070713          	addi	x14,x14,0 # 10000000 <fib_seq.1299>
  400708:	00a70533          	add	x10,x14,x10
  40070c:	44452503          	lw	x10,1092(x10)
  400710:	00279793          	slli	x15,x15,0x2
  400714:	10000737          	lui	x14,0x10000
  400718:	5c070713          	addi	x14,x14,1472 # 100005c0 <buf>
  40071c:	00e787b3          	add	x15,x15,x14
  400720:	0007a703          	lw	x14,0(x15)
  400724:	00a70733          	add	x14,x14,x10
  400728:	00e7a023          	sw	x14,0(x15)
  40072c:	00008067          	jalr	x0,0(x1)
  400730:	ffe00513          	addi	x10,x0,-2
  400734:	00008067          	jalr	x0,0(x1)
  400738:	ffd00513          	addi	x10,x0,-3
  40073c:	00008067          	jalr	x0,0(x1)
  400740:	00008067          	jalr	x0,0(x1)

00400744 <fibm>:
  400744:	ff010113          	addi	x2,x2,-16
  400748:	00112623          	sw	x1,12(x2)
  40074c:	10000737          	lui	x14,0x10000
  400750:	5b472783          	lw	x15,1460(x14) # 100005b4 <i.1342>
  400754:	00178693          	addi	x13,x15,1
  400758:	5ad72a23          	sw	x13,1460(x14)
  40075c:	41f7d713          	srai	x14,x15,0x1f
  400760:	01e75713          	srli	x14,x14,0x1e
  400764:	00e787b3          	add	x15,x15,x14
  400768:	0037f793          	andi	x15,x15,3
  40076c:	40e787b3          	sub	x15,x15,x14
  400770:	00100713          	addi	x14,x0,1
  400774:	02e78c63          	beq	x15,x14,4007ac <fibm+0x68>
  400778:	02f75063          	bge	x14,x15,400798 <fibm+0x54>
  40077c:	00200713          	addi	x14,x0,2
  400780:	02e78c63          	beq	x15,x14,4007b8 <fibm+0x74>
  400784:	00300713          	addi	x14,x0,3
  400788:	02e79c63          	bne	x15,x14,4007c0 <fibm+0x7c>
  40078c:	00000097          	auipc	x1,0x0
  400790:	e94080e7          	jalr	x1,-364(x1) # 400620 <fibm3>
  400794:	00c0006f          	jal	x0,4007a0 <fibm+0x5c>
  400798:	02079463          	bne	x15,x0,4007c0 <fibm+0x7c>
  40079c:	b25ff0ef          	jal	x1,4002c0 <fibm0>
  4007a0:	00c12083          	lw	x1,12(x2)
  4007a4:	01010113          	addi	x2,x2,16
  4007a8:	00008067          	jalr	x0,0(x1)
  4007ac:	00000097          	auipc	x1,0x0
  4007b0:	c34080e7          	jalr	x1,-972(x1) # 4003e0 <fibm1>
  4007b4:	fedff06f          	jal	x0,4007a0 <fibm+0x5c>
  4007b8:	d4dff0ef          	jal	x1,400504 <fibm2>
  4007bc:	fe5ff06f          	jal	x0,4007a0 <fibm+0x5c>
  4007c0:	c1800513          	addi	x10,x0,-1000
  4007c4:	fddff06f          	jal	x0,4007a0 <fibm+0x5c>

004007c8 <fibr>:
  4007c8:	ff010113          	addi	x2,x2,-16
  4007cc:	00112623          	sw	x1,12(x2)
  4007d0:	00812423          	sw	x8,8(x2)
  4007d4:	00912223          	sw	x9,4(x2)
  4007d8:	01212023          	sw	x18,0(x2)
  4007dc:	00900793          	addi	x15,x0,9
  4007e0:	1aa7c463          	blt	x15,x10,400988 <fibr+0x1c0>
  4007e4:	00050413          	addi	x8,x10,0
  4007e8:	08050463          	beq	x10,x0,400870 <fibr+0xa8>
  4007ec:	00100793          	addi	x15,x0,1
  4007f0:	08f50063          	beq	x10,x15,400870 <fibr+0xa8>
  4007f4:	10000737          	lui	x14,0x10000
  4007f8:	5b072783          	lw	x15,1456(x14) # 100005b0 <i.1350>
  4007fc:	00778793          	addi	x15,x15,7
  400800:	5af72823          	sw	x15,1456(x14)
  400804:	00a787b3          	add	x15,x15,x10
  400808:	41f7d713          	srai	x14,x15,0x1f
  40080c:	01d75713          	srli	x14,x14,0x1d
  400810:	00e787b3          	add	x15,x15,x14
  400814:	0077f793          	andi	x15,x15,7
  400818:	40e787b3          	sub	x15,x15,x14
  40081c:	00700713          	addi	x14,x0,7
  400820:	12f76863          	bltu	x14,x15,400950 <fibr+0x188>
  400824:	00279793          	slli	x15,x15,0x2
  400828:	00401737          	lui	x14,0x401
  40082c:	a0c70713          	addi	x14,x14,-1524 # 400a0c <main+0x7c>
  400830:	00e787b3          	add	x15,x15,x14
  400834:	0007a783          	lw	x15,0(x15)
  400838:	00078067          	jalr	x0,0(x15)
  40083c:	fff50513          	addi	x10,x10,-1
  400840:	f89ff0ef          	jal	x1,4007c8 <fibr>
  400844:	00050493          	addi	x9,x10,0
  400848:	ffe40513          	addi	x10,x8,-2
  40084c:	f7dff0ef          	jal	x1,4007c8 <fibr>
  400850:	00a484b3          	add	x9,x9,x10
  400854:	00300793          	addi	x15,x0,3
  400858:	1087c063          	blt	x15,x8,400958 <fibr+0x190>
  40085c:	10000737          	lui	x14,0x10000
  400860:	5bc72783          	lw	x15,1468(x14) # 100005bc <bufi>
  400864:	009787b3          	add	x15,x15,x9
  400868:	5af72e23          	sw	x15,1468(x14)
  40086c:	00048413          	addi	x8,x9,0
  400870:	00040513          	addi	x10,x8,0
  400874:	00c12083          	lw	x1,12(x2)
  400878:	00812403          	lw	x8,8(x2)
  40087c:	00412483          	lw	x9,4(x2)
  400880:	00012903          	lw	x18,0(x2)
  400884:	01010113          	addi	x2,x2,16
  400888:	00008067          	jalr	x0,0(x1)
  40088c:	fff50513          	addi	x10,x10,-1
  400890:	f39ff0ef          	jal	x1,4007c8 <fibr>
  400894:	00050493          	addi	x9,x10,0
  400898:	ffe40513          	addi	x10,x8,-2
  40089c:	f2dff0ef          	jal	x1,4007c8 <fibr>
  4008a0:	00a484b3          	add	x9,x9,x10
  4008a4:	fb1ff06f          	jal	x0,400854 <fibr+0x8c>
  4008a8:	fff50513          	addi	x10,x10,-1
  4008ac:	f1dff0ef          	jal	x1,4007c8 <fibr>
  4008b0:	00050493          	addi	x9,x10,0
  4008b4:	ffe40513          	addi	x10,x8,-2
  4008b8:	f11ff0ef          	jal	x1,4007c8 <fibr>
  4008bc:	00a484b3          	add	x9,x9,x10
  4008c0:	f95ff06f          	jal	x0,400854 <fibr+0x8c>
  4008c4:	fff50513          	addi	x10,x10,-1
  4008c8:	f01ff0ef          	jal	x1,4007c8 <fibr>
  4008cc:	00050493          	addi	x9,x10,0
  4008d0:	ffe40513          	addi	x10,x8,-2
  4008d4:	ef5ff0ef          	jal	x1,4007c8 <fibr>
  4008d8:	00a484b3          	add	x9,x9,x10
  4008dc:	f79ff06f          	jal	x0,400854 <fibr+0x8c>
  4008e0:	fff50513          	addi	x10,x10,-1
  4008e4:	ee5ff0ef          	jal	x1,4007c8 <fibr>
  4008e8:	00050493          	addi	x9,x10,0
  4008ec:	ffe40513          	addi	x10,x8,-2
  4008f0:	ed9ff0ef          	jal	x1,4007c8 <fibr>
  4008f4:	00a484b3          	add	x9,x9,x10
  4008f8:	f5dff06f          	jal	x0,400854 <fibr+0x8c>
  4008fc:	fff50513          	addi	x10,x10,-1
  400900:	ec9ff0ef          	jal	x1,4007c8 <fibr>
  400904:	00050493          	addi	x9,x10,0
  400908:	ffe40513          	addi	x10,x8,-2
  40090c:	ebdff0ef          	jal	x1,4007c8 <fibr>
  400910:	00a484b3          	add	x9,x9,x10
  400914:	f41ff06f          	jal	x0,400854 <fibr+0x8c>
  400918:	fff50513          	addi	x10,x10,-1
  40091c:	eadff0ef          	jal	x1,4007c8 <fibr>
  400920:	00050493          	addi	x9,x10,0
  400924:	ffe40513          	addi	x10,x8,-2
  400928:	ea1ff0ef          	jal	x1,4007c8 <fibr>
  40092c:	00a484b3          	add	x9,x9,x10
  400930:	f25ff06f          	jal	x0,400854 <fibr+0x8c>
  400934:	fff50513          	addi	x10,x10,-1
  400938:	e91ff0ef          	jal	x1,4007c8 <fibr>
  40093c:	00050493          	addi	x9,x10,0
  400940:	ffe40513          	addi	x10,x8,-2
  400944:	e85ff0ef          	jal	x1,4007c8 <fibr>
  400948:	00a484b3          	add	x9,x9,x10
  40094c:	f09ff06f          	jal	x0,400854 <fibr+0x8c>
  400950:	fff00493          	addi	x9,x0,-1
  400954:	f01ff06f          	jal	x0,400854 <fibr+0x8c>
  400958:	00241793          	slli	x15,x8,0x2
  40095c:	00878433          	add	x8,x15,x8
  400960:	00141413          	slli	x8,x8,0x1
  400964:	00040513          	addi	x10,x8,0
  400968:	8d5ff0ef          	jal	x1,40023c <fibi>
  40096c:	00050913          	addi	x18,x10,0
  400970:	00040513          	addi	x10,x8,0
  400974:	00000097          	auipc	x1,0x0
  400978:	dd0080e7          	jalr	x1,-560(x1) # 400744 <fibm>
  40097c:	eea900e3          	beq	x18,x10,40085c <fibr+0x94>
  400980:	ffb00413          	addi	x8,x0,-5
  400984:	eedff06f          	jal	x0,400870 <fibr+0xa8>
  400988:	ffc00413          	addi	x8,x0,-4
  40098c:	ee5ff06f          	jal	x0,400870 <fibr+0xa8>

00400990 <main>:
  400990:	ff010113          	addi	x2,x2,-16
  400994:	00112623          	sw	x1,12(x2)
  400998:	00812423          	sw	x8,8(x2)
  40099c:	00912223          	sw	x9,4(x2)
  4009a0:	10000437          	lui	x8,0x10000
  4009a4:	5c040493          	addi	x9,x8,1472 # 100005c0 <buf>
  4009a8:	00001737          	lui	x14,0x1
  4009ac:	80070713          	addi	x14,x14,-2048 # 800 <_start-0x3ff800>
  4009b0:	00e48733          	add	x14,x9,x14
  4009b4:	5c040413          	addi	x8,x8,1472
  4009b8:	00000793          	addi	x15,x0,0
  4009bc:	00f42023          	sw	x15,0(x8)
  4009c0:	fff78793          	addi	x15,x15,-1
  4009c4:	00440413          	addi	x8,x8,4
  4009c8:	fee41ae3          	bne	x8,x14,4009bc <main+0x2c>
  4009cc:	00900513          	addi	x10,x0,9
  4009d0:	00000097          	auipc	x1,0x0
  4009d4:	df8080e7          	jalr	x1,-520(x1) # 4007c8 <fibr>
  4009d8:	00000793          	addi	x15,x0,0
  4009dc:	0004a703          	lw	x14,0(x9)
  4009e0:	00e787b3          	add	x15,x15,x14
  4009e4:	00448493          	addi	x9,x9,4
  4009e8:	fe849ae3          	bne	x9,x8,4009dc <main+0x4c>
  4009ec:	10000737          	lui	x14,0x10000
  4009f0:	5bc72503          	lw	x10,1468(x14) # 100005bc <bufi>
  4009f4:	00a78533          	add	x10,x15,x10
  4009f8:	00c12083          	lw	x1,12(x2)
  4009fc:	00812403          	lw	x8,8(x2)
  400a00:	00412483          	lw	x9,4(x2)
  400a04:	01010113          	addi	x2,x2,16
  400a08:	00008067          	jalr	x0,0(x1)
  400a0c:	083c                	c.addi4spn	x15,x2,24
  400a0e:	0040                	c.addi4spn	x8,x2,4
  400a10:	088c                	c.addi4spn	x11,x2,80
  400a12:	0040                	c.addi4spn	x8,x2,4
  400a14:	08a8                	c.addi4spn	x10,x2,88
  400a16:	0040                	c.addi4spn	x8,x2,4
  400a18:	08c4                	c.addi4spn	x9,x2,84
  400a1a:	0040                	c.addi4spn	x8,x2,4
  400a1c:	08e0                	c.addi4spn	x8,x2,92
  400a1e:	0040                	c.addi4spn	x8,x2,4
  400a20:	08fc                	c.addi4spn	x15,x2,92
  400a22:	0040                	c.addi4spn	x8,x2,4
  400a24:	0918                	c.addi4spn	x14,x2,144
  400a26:	0040                	c.addi4spn	x8,x2,4
  400a28:	0934                	c.addi4spn	x13,x2,152
  400a2a:	0040                	c.addi4spn	x8,x2,4
