
benchmarks/quicksort.elf:     file format elf32-littleriscv


Disassembly of section .text:

00400000 <_start>:
  400000:	100000ef          	jal	x1,400100 <main>
  400004:	00050113          	addi	x2,x10,0
  400008:	00058193          	addi	x3,x11,0
  40000c:	00a00513          	addi	x10,x0,10
  400010:	00000073          	ecall

00400014 <partition>:
  400014:	00261793          	slli	x15,x12,0x2
  400018:	00f50333          	add	x6,x10,x15
  40001c:	00032803          	lw	x16,0(x6)
  400020:	fff58693          	addi	x13,x11,-1
  400024:	04c5d063          	bge	x11,x12,400064 <partition+0x50>
  400028:	00259593          	slli	x11,x11,0x2
  40002c:	00b505b3          	add	x11,x10,x11
  400030:	00030613          	addi	x12,x6,0
  400034:	00c0006f          	jal	x0,400040 <partition+0x2c>
  400038:	00458593          	addi	x11,x11,4
  40003c:	02c58463          	beq	x11,x12,400064 <partition+0x50>
  400040:	0005a703          	lw	x14,0(x11)
  400044:	fee84ae3          	blt	x16,x14,400038 <partition+0x24>
  400048:	00168693          	addi	x13,x13,1
  40004c:	00269793          	slli	x15,x13,0x2
  400050:	00f507b3          	add	x15,x10,x15
  400054:	0007a883          	lw	x17,0(x15)
  400058:	00e7a023          	sw	x14,0(x15)
  40005c:	0115a023          	sw	x17,0(x11)
  400060:	fd9ff06f          	jal	x0,400038 <partition+0x24>
  400064:	00168693          	addi	x13,x13,1
  400068:	00269793          	slli	x15,x13,0x2
  40006c:	00f50533          	add	x10,x10,x15
  400070:	00052783          	lw	x15,0(x10)
  400074:	00032703          	lw	x14,0(x6)
  400078:	00e52023          	sw	x14,0(x10)
  40007c:	00f32023          	sw	x15,0(x6)
  400080:	00068513          	addi	x10,x13,0
  400084:	00008067          	jalr	x0,0(x1)

00400088 <quickSort>:
  400088:	00c5d463          	bge	x11,x12,400090 <quickSort+0x8>
  40008c:	0005d463          	bge	x11,x0,400094 <quickSort+0xc>
  400090:	00008067          	jalr	x0,0(x1)
  400094:	fe010113          	addi	x2,x2,-32
  400098:	00112e23          	sw	x1,28(x2)
  40009c:	00812c23          	sw	x8,24(x2)
  4000a0:	00912a23          	sw	x9,20(x2)
  4000a4:	01212823          	sw	x18,16(x2)
  4000a8:	01312623          	sw	x19,12(x2)
  4000ac:	00060493          	addi	x9,x12,0
  4000b0:	00058413          	addi	x8,x11,0
  4000b4:	00050913          	addi	x18,x10,0
  4000b8:	00000097          	auipc	x1,0x0
  4000bc:	f5c080e7          	jalr	x1,-164(x1) # 400014 <partition>
  4000c0:	00050993          	addi	x19,x10,0
  4000c4:	fff50613          	addi	x12,x10,-1
  4000c8:	00040593          	addi	x11,x8,0
  4000cc:	00090513          	addi	x10,x18,0
  4000d0:	fb9ff0ef          	jal	x1,400088 <quickSort>
  4000d4:	00048613          	addi	x12,x9,0
  4000d8:	00198593          	addi	x11,x19,1
  4000dc:	00090513          	addi	x10,x18,0
  4000e0:	fa9ff0ef          	jal	x1,400088 <quickSort>
  4000e4:	01c12083          	lw	x1,28(x2)
  4000e8:	01812403          	lw	x8,24(x2)
  4000ec:	01412483          	lw	x9,20(x2)
  4000f0:	01012903          	lw	x18,16(x2)
  4000f4:	00c12983          	lw	x19,12(x2)
  4000f8:	02010113          	addi	x2,x2,32
  4000fc:	00008067          	jalr	x0,0(x1)

00400100 <main>:
  400100:	ff010113          	addi	x2,x2,-16
  400104:	00112623          	sw	x1,12(x2)
  400108:	00812423          	sw	x8,8(x2)
  40010c:	00912223          	sw	x9,4(x2)
  400110:	10000437          	lui	x8,0x10000
  400114:	00040493          	addi	x9,x8,0 # 10000000 <array>
  400118:	3c048613          	addi	x12,x9,960
  40011c:	00040413          	addi	x8,x8,0
  400120:	000026b7          	lui	x13,0x2
  400124:	d1068693          	addi	x13,x13,-752 # 1d10 <_start-0x3fe2f0>
  400128:	00000793          	addi	x15,x0,0
  40012c:	0117d713          	srli	x14,x15,0x11
  400130:	00f79793          	slli	x15,x15,0xf
  400134:	00f767b3          	or	x15,x14,x15
  400138:	00f6c7b3          	xor	x15,x13,x15
  40013c:	00f42023          	sw	x15,0(x8)
  400140:	fe168693          	addi	x13,x13,-31
  400144:	00440413          	addi	x8,x8,4
  400148:	fec412e3          	bne	x8,x12,40012c <main+0x2c>
  40014c:	0ef00613          	addi	x12,x0,239
  400150:	00000593          	addi	x11,x0,0
  400154:	10000537          	lui	x10,0x10000
  400158:	00050513          	addi	x10,x10,0 # 10000000 <array>
  40015c:	00000097          	auipc	x1,0x0
  400160:	f2c080e7          	jalr	x1,-212(x1) # 400088 <quickSort>
  400164:	00000513          	addi	x10,x0,0
  400168:	01f55793          	srli	x15,x10,0x1f
  40016c:	00151513          	slli	x10,x10,0x1
  400170:	00a7e7b3          	or	x15,x15,x10
  400174:	0004a503          	lw	x10,0(x9)
  400178:	00a7c533          	xor	x10,x15,x10
  40017c:	00448493          	addi	x9,x9,4
  400180:	fe8494e3          	bne	x9,x8,400168 <main+0x68>
  400184:	00c12083          	lw	x1,12(x2)
  400188:	00812403          	lw	x8,8(x2)
  40018c:	00412483          	lw	x9,4(x2)
  400190:	01010113          	addi	x2,x2,16
  400194:	00008067          	jalr	x0,0(x1)
  400198:	0000                	unimp
	...
