
benchmarks/transpose.elf:     file format elf32-littleriscv


Disassembly of section .text:

00400000 <_start>:
  400000:	198000ef          	jal	x1,400198 <main>
  400004:	00050113          	addi	x2,x10,0
  400008:	00058193          	addi	x3,x11,0
  40000c:	00a00513          	addi	x10,x0,10
  400010:	00000073          	ecall

00400014 <transpose_17>:
  400014:	00000613          	addi	x12,x0,0
  400018:	00100313          	addi	x6,x0,1
  40001c:	00100693          	addi	x13,x0,1
  400020:	100005b7          	lui	x11,0x10000
  400024:	00058593          	addi	x11,x11,0 # 10000000 <array_17x17>
  400028:	01000893          	addi	x17,x0,16
  40002c:	00461793          	slli	x15,x12,0x4
  400030:	00c787b3          	add	x15,x15,x12
  400034:	00d787b3          	add	x15,x15,x13
  400038:	00279793          	slli	x15,x15,0x2
  40003c:	00f587b3          	add	x15,x11,x15
  400040:	0007a803          	lw	x16,0(x15)
  400044:	00469713          	slli	x14,x13,0x4
  400048:	00d70733          	add	x14,x14,x13
  40004c:	00c70733          	add	x14,x14,x12
  400050:	00271713          	slli	x14,x14,0x2
  400054:	00e58733          	add	x14,x11,x14
  400058:	00072503          	lw	x10,0(x14)
  40005c:	01072023          	sw	x16,0(x14)
  400060:	00a7a023          	sw	x10,0(x15)
  400064:	00168693          	addi	x13,x13,1
  400068:	fcd8d2e3          	bge	x17,x13,40002c <transpose_17+0x18>
  40006c:	00130693          	addi	x13,x6,1
  400070:	00d8c863          	blt	x17,x13,400080 <transpose_17+0x6c>
  400074:	00030613          	addi	x12,x6,0
  400078:	00068313          	addi	x6,x13,0
  40007c:	fb1ff06f          	jal	x0,40002c <transpose_17+0x18>
  400080:	00008067          	jalr	x0,0(x1)

00400084 <transpose_16>:
  400084:	00000613          	addi	x12,x0,0
  400088:	00100313          	addi	x6,x0,1
  40008c:	00100693          	addi	x13,x0,1
  400090:	100005b7          	lui	x11,0x10000
  400094:	00058593          	addi	x11,x11,0 # 10000000 <array_17x17>
  400098:	00f00893          	addi	x17,x0,15
  40009c:	00461793          	slli	x15,x12,0x4
  4000a0:	00d787b3          	add	x15,x15,x13
  4000a4:	00279793          	slli	x15,x15,0x2
  4000a8:	00f587b3          	add	x15,x11,x15
  4000ac:	4847a803          	lw	x16,1156(x15)
  4000b0:	00469713          	slli	x14,x13,0x4
  4000b4:	00c70733          	add	x14,x14,x12
  4000b8:	00271713          	slli	x14,x14,0x2
  4000bc:	00e58733          	add	x14,x11,x14
  4000c0:	48472503          	lw	x10,1156(x14)
  4000c4:	49072223          	sw	x16,1156(x14)
  4000c8:	48a7a223          	sw	x10,1156(x15)
  4000cc:	00168693          	addi	x13,x13,1
  4000d0:	fcd8d6e3          	bge	x17,x13,40009c <transpose_16+0x18>
  4000d4:	00130693          	addi	x13,x6,1
  4000d8:	00d8c863          	blt	x17,x13,4000e8 <transpose_16+0x64>
  4000dc:	00030613          	addi	x12,x6,0
  4000e0:	00068313          	addi	x6,x13,0
  4000e4:	fb9ff06f          	jal	x0,40009c <transpose_16+0x18>
  4000e8:	00008067          	jalr	x0,0(x1)

004000ec <transpose_14>:
  4000ec:	00000613          	addi	x12,x0,0
  4000f0:	00100313          	addi	x6,x0,1
  4000f4:	00100693          	addi	x13,x0,1
  4000f8:	100015b7          	lui	x11,0x10001
  4000fc:	00058593          	addi	x11,x11,0 # 10001000 <image+0x19c>
  400100:	00d00893          	addi	x17,x0,13
  400104:	00361793          	slli	x15,x12,0x3
  400108:	40c787b3          	sub	x15,x15,x12
  40010c:	00179793          	slli	x15,x15,0x1
  400110:	00d787b3          	add	x15,x15,x13
  400114:	00279793          	slli	x15,x15,0x2
  400118:	00f587b3          	add	x15,x11,x15
  40011c:	8847a803          	lw	x16,-1916(x15)
  400120:	00369713          	slli	x14,x13,0x3
  400124:	40d70733          	sub	x14,x14,x13
  400128:	00171713          	slli	x14,x14,0x1
  40012c:	00c70733          	add	x14,x14,x12
  400130:	00271713          	slli	x14,x14,0x2
  400134:	00e58733          	add	x14,x11,x14
  400138:	88472503          	lw	x10,-1916(x14)
  40013c:	89072223          	sw	x16,-1916(x14)
  400140:	88a7a223          	sw	x10,-1916(x15)
  400144:	00168693          	addi	x13,x13,1
  400148:	fad8dee3          	bge	x17,x13,400104 <transpose_14+0x18>
  40014c:	00130693          	addi	x13,x6,1
  400150:	00d8c863          	blt	x17,x13,400160 <transpose_14+0x74>
  400154:	00030613          	addi	x12,x6,0
  400158:	00068313          	addi	x6,x13,0
  40015c:	fa9ff06f          	jal	x0,400104 <transpose_14+0x18>
  400160:	00008067          	jalr	x0,0(x1)

00400164 <get_checksum>:
  400164:	02b05663          	bge	x0,x11,400190 <get_checksum+0x2c>
  400168:	00050693          	addi	x13,x10,0
  40016c:	00000793          	addi	x15,x0,0
  400170:	00000513          	addi	x10,x0,0
  400174:	0006a703          	lw	x14,0(x13)
  400178:	00e7c733          	xor	x14,x15,x14
  40017c:	00e50533          	add	x10,x10,x14
  400180:	00178793          	addi	x15,x15,1
  400184:	00468693          	addi	x13,x13,4
  400188:	fef596e3          	bne	x11,x15,400174 <get_checksum+0x10>
  40018c:	00008067          	jalr	x0,0(x1)
  400190:	00000513          	addi	x10,x0,0
  400194:	00008067          	jalr	x0,0(x1)

00400198 <main>:
  400198:	ff010113          	addi	x2,x2,-16
  40019c:	00112623          	sw	x1,12(x2)
  4001a0:	00812423          	sw	x8,8(x2)
  4001a4:	00912223          	sw	x9,4(x2)
  4001a8:	f45ff0ef          	jal	x1,4000ec <transpose_14>
  4001ac:	0c400593          	addi	x11,x0,196
  4001b0:	10001537          	lui	x10,0x10001
  4001b4:	88450513          	addi	x10,x10,-1916 # 10000884 <array_14x14>
  4001b8:	00000097          	auipc	x1,0x0
  4001bc:	fac080e7          	jalr	x1,-84(x1) # 400164 <get_checksum>
  4001c0:	00050413          	addi	x8,x10,0
  4001c4:	e51ff0ef          	jal	x1,400014 <transpose_17>
  4001c8:	10000537          	lui	x10,0x10000
  4001cc:	00050493          	addi	x9,x10,0 # 10000000 <array_17x17>
  4001d0:	12100593          	addi	x11,x0,289
  4001d4:	00050513          	addi	x10,x10,0
  4001d8:	00000097          	auipc	x1,0x0
  4001dc:	f8c080e7          	jalr	x1,-116(x1) # 400164 <get_checksum>
  4001e0:	01241413          	slli	x8,x8,0x12
  4001e4:	00951513          	slli	x10,x10,0x9
  4001e8:	00a44433          	xor	x8,x8,x10
  4001ec:	00000097          	auipc	x1,0x0
  4001f0:	e98080e7          	jalr	x1,-360(x1) # 400084 <transpose_16>
  4001f4:	10000593          	addi	x11,x0,256
  4001f8:	48448513          	addi	x10,x9,1156
  4001fc:	00000097          	auipc	x1,0x0
  400200:	f68080e7          	jalr	x1,-152(x1) # 400164 <get_checksum>
  400204:	00a44533          	xor	x10,x8,x10
  400208:	00c12083          	lw	x1,12(x2)
  40020c:	00812403          	lw	x8,8(x2)
  400210:	00412483          	lw	x9,4(x2)
  400214:	01010113          	addi	x2,x2,16
  400218:	00008067          	jalr	x0,0(x1)
  40021c:	0000                	unimp
	...
